
obj/kern/kernel:     file format elf64-x86-64


Disassembly of section .bootstrap:

0000000000100000 <_head64>:
.text
.globl _head64
_head64:

# Save multiboot_info addr passed by bootloader
    movl $multiboot_info, %eax
  100000:	b8 00 70 10 00       	mov    $0x107000,%eax
    movl %ebx, (%eax)
  100005:	89 18                	mov    %ebx,(%rax)

	movw $0x1234,0x472			# warm boot
  100007:	66 c7 05 72 04 00 00 	movw   $0x1234,0x472(%rip)        # 100482 <verify_cpu_no_longmode+0x36f>
  10000e:	34 12 
# Reset the stack pointer in case we didn't come from the loader
    movl $0x7c00,%esp
  100010:	bc 00 7c 00 00       	mov    $0x7c00,%esp

    call verify_cpu   #check if CPU supports long mode
  100015:	e8 cc 00 00 00       	callq  1000e6 <verify_cpu>
    movl $CR4_PAE,%eax
  10001a:	b8 20 00 00 00       	mov    $0x20,%eax
    movl %eax,%cr4
  10001f:	0f 22 e0             	mov    %rax,%cr4

# build an early boot pml4 at physical address pml4phys 

    #initializing the page tables
    movl $pml4,%edi
  100022:	bf 00 20 10 00       	mov    $0x102000,%edi
    xorl %eax,%eax
  100027:	31 c0                	xor    %eax,%eax
    movl $((4096/4)*5),%ecx  # moving these many words to the 6 pages with 4 second level pages + 1 3rd level + 1 4th level pages 
  100029:	b9 00 14 00 00       	mov    $0x1400,%ecx
    rep stosl
  10002e:	f3 ab                	rep stos %eax,%es:(%rdi)
    # creating a 4G boot page table
    # setting the 4th level page table only the second entry needed (PML4)
    movl $pml4,%eax
  100030:	b8 00 20 10 00       	mov    $0x102000,%eax
    movl $pdpt1, %ebx
  100035:	bb 00 30 10 00       	mov    $0x103000,%ebx
    orl $PTE_P,%ebx
  10003a:	83 cb 01             	or     $0x1,%ebx
    orl $PTE_W,%ebx
  10003d:	83 cb 02             	or     $0x2,%ebx
    movl %ebx,(%eax)
  100040:	89 18                	mov    %ebx,(%rax)

    movl $pdpt2, %ebx
  100042:	bb 00 40 10 00       	mov    $0x104000,%ebx
    orl $PTE_P,%ebx
  100047:	83 cb 01             	or     $0x1,%ebx
    orl $PTE_W,%ebx
  10004a:	83 cb 02             	or     $0x2,%ebx
    movl %ebx,0x8(%eax)
  10004d:	89 58 08             	mov    %ebx,0x8(%rax)

    # setting the 3rd level page table (PDPE)
    # 4 entries (counter in ecx), point to the next four physical pages (pgdirs)
    # pgdirs in 0xa0000--0xd000
    movl $pdpt1,%edi
  100050:	bf 00 30 10 00       	mov    $0x103000,%edi
    movl $pde1,%ebx
  100055:	bb 00 50 10 00       	mov    $0x105000,%ebx
    orl $PTE_P,%ebx
  10005a:	83 cb 01             	or     $0x1,%ebx
    orl $PTE_W,%ebx
  10005d:	83 cb 02             	or     $0x2,%ebx
    movl %ebx,(%edi)
  100060:	89 1f                	mov    %ebx,(%rdi)

    movl $pdpt2,%edi
  100062:	bf 00 40 10 00       	mov    $0x104000,%edi
    movl $pde2,%ebx
  100067:	bb 00 60 10 00       	mov    $0x106000,%ebx
    orl $PTE_P,%ebx
  10006c:	83 cb 01             	or     $0x1,%ebx
    orl $PTE_W,%ebx
  10006f:	83 cb 02             	or     $0x2,%ebx
    movl %ebx,(%edi)
  100072:	89 1f                	mov    %ebx,(%rdi)
    
    # setting the pgdir so that the LA=PA
    # mapping first 1G of mem at KERNBASE
    movl $128,%ecx
  100074:	b9 80 00 00 00       	mov    $0x80,%ecx
    # Start at the end and work backwards
    #leal (pml4 + 5*0x1000 - 0x8),%edi
    movl $pde1,%edi
  100079:	bf 00 50 10 00       	mov    $0x105000,%edi
    movl $pde2,%ebx
  10007e:	bb 00 60 10 00       	mov    $0x106000,%ebx
    #64th entry - 0x8004000000
    addl $256,%ebx 
  100083:	81 c3 00 01 00 00    	add    $0x100,%ebx
    # PTE_P|PTE_W|PTE_MBZ
    movl $0x00000183,%eax
  100089:	b8 83 01 00 00       	mov    $0x183,%eax
  1:
     movl %eax,(%edi)
  10008e:	89 07                	mov    %eax,(%rdi)
     movl %eax,(%ebx)
  100090:	89 03                	mov    %eax,(%rbx)
     addl $0x8,%edi
  100092:	83 c7 08             	add    $0x8,%edi
     addl $0x8,%ebx
  100095:	83 c3 08             	add    $0x8,%ebx
     addl $0x00200000,%eax
  100098:	05 00 00 20 00       	add    $0x200000,%eax
     subl $1,%ecx
  10009d:	83 e9 01             	sub    $0x1,%ecx
     cmp $0x0,%ecx
  1000a0:	83 f9 00             	cmp    $0x0,%ecx
     jne 1b
  1000a3:	75 e9                	jne    10008e <_head64+0x8e>
 /*    subl $1,%ecx */
 /*    cmp $0x0,%ecx */
 /*    jne 1b */

    # set the cr3 register
    movl $pml4,%eax
  1000a5:	b8 00 20 10 00       	mov    $0x102000,%eax
    movl %eax, %cr3
  1000aa:	0f 22 d8             	mov    %rax,%cr3

	
    # enable the long mode in MSR
    movl $EFER_MSR,%ecx
  1000ad:	b9 80 00 00 c0       	mov    $0xc0000080,%ecx
    rdmsr
  1000b2:	0f 32                	rdmsr  
    btsl $EFER_LME,%eax
  1000b4:	0f ba e8 08          	bts    $0x8,%eax
    wrmsr
  1000b8:	0f 30                	wrmsr  
    
    # enable paging 
    movl %cr0,%eax
  1000ba:	0f 20 c0             	mov    %cr0,%rax
    orl $CR0_PE,%eax
  1000bd:	83 c8 01             	or     $0x1,%eax
    orl $CR0_PG,%eax
  1000c0:	0d 00 00 00 80       	or     $0x80000000,%eax
    orl $CR0_AM,%eax
  1000c5:	0d 00 00 04 00       	or     $0x40000,%eax
    orl $CR0_WP,%eax
  1000ca:	0d 00 00 01 00       	or     $0x10000,%eax
    orl $CR0_MP,%eax
  1000cf:	83 c8 02             	or     $0x2,%eax
    movl %eax,%cr0
  1000d2:	0f 22 c0             	mov    %rax,%cr0
    #jump to long mode with CS=0 and

    movl $gdtdesc_64,%eax
  1000d5:	b8 18 10 10 00       	mov    $0x101018,%eax
    lgdt (%eax)
  1000da:	0f 01 10             	lgdt   (%rax)
    pushl $0x8
  1000dd:	6a 08                	pushq  $0x8
    movl $_start,%eax
  1000df:	b8 0c 00 20 00       	mov    $0x20000c,%eax
    pushl %eax
  1000e4:	50                   	push   %rax

00000000001000e5 <jumpto_longmode>:
    
    .globl jumpto_longmode
    .type jumpto_longmode,@function
jumpto_longmode:
    lret
  1000e5:	cb                   	lret   

00000000001000e6 <verify_cpu>:
/*     movabs $_back_from_head64, %rax */
/*     pushq %rax */
/*     lretq */

verify_cpu:
    pushfl                   # get eflags in eax -- standardard way to check for cpuid
  1000e6:	9c                   	pushfq 
    popl %eax
  1000e7:	58                   	pop    %rax
    movl %eax,%ecx
  1000e8:	89 c1                	mov    %eax,%ecx
    xorl $0x200000, %eax
  1000ea:	35 00 00 20 00       	xor    $0x200000,%eax
    pushl %eax
  1000ef:	50                   	push   %rax
    popfl
  1000f0:	9d                   	popfq  
    pushfl
  1000f1:	9c                   	pushfq 
    popl %eax
  1000f2:	58                   	pop    %rax
    cmpl %eax,%ebx
  1000f3:	39 c3                	cmp    %eax,%ebx
    jz verify_cpu_no_longmode   # no cpuid -- no long mode
  1000f5:	74 1c                	je     100113 <verify_cpu_no_longmode>

    movl $0x0,%eax              # see if cpuid 1 is implemented
  1000f7:	b8 00 00 00 00       	mov    $0x0,%eax
    cpuid
  1000fc:	0f a2                	cpuid  
    cmpl $0x1,%eax
  1000fe:	83 f8 01             	cmp    $0x1,%eax
    jb verify_cpu_no_longmode    # cpuid 1 is not implemented
  100101:	72 10                	jb     100113 <verify_cpu_no_longmode>


    mov $0x80000001, %eax
  100103:	b8 01 00 00 80       	mov    $0x80000001,%eax
    cpuid                 
  100108:	0f a2                	cpuid  
    test $(1 << 29),%edx                 #Test if the LM-bit, is set or not.
  10010a:	f7 c2 00 00 00 20    	test   $0x20000000,%edx
    jz verify_cpu_no_longmode
  100110:	74 01                	je     100113 <verify_cpu_no_longmode>

    ret
  100112:	c3                   	retq   

0000000000100113 <verify_cpu_no_longmode>:

verify_cpu_no_longmode:
    jmp verify_cpu_no_longmode
  100113:	eb fe                	jmp    100113 <verify_cpu_no_longmode>
  100115:	66 2e 0f 1f 84 00 00 	nopw   %cs:0x0(%rax,%rax,1)
  10011c:	00 00 00 
  10011f:	66 2e 0f 1f 84 00 00 	nopw   %cs:0x0(%rax,%rax,1)
  100126:	00 00 00 
  100129:	66 2e 0f 1f 84 00 00 	nopw   %cs:0x0(%rax,%rax,1)
  100130:	00 00 00 
  100133:	66 2e 0f 1f 84 00 00 	nopw   %cs:0x0(%rax,%rax,1)
  10013a:	00 00 00 
  10013d:	66 2e 0f 1f 84 00 00 	nopw   %cs:0x0(%rax,%rax,1)
  100144:	00 00 00 
  100147:	66 2e 0f 1f 84 00 00 	nopw   %cs:0x0(%rax,%rax,1)
  10014e:	00 00 00 
  100151:	66 2e 0f 1f 84 00 00 	nopw   %cs:0x0(%rax,%rax,1)
  100158:	00 00 00 
  10015b:	66 2e 0f 1f 84 00 00 	nopw   %cs:0x0(%rax,%rax,1)
  100162:	00 00 00 
  100165:	66 2e 0f 1f 84 00 00 	nopw   %cs:0x0(%rax,%rax,1)
  10016c:	00 00 00 
  10016f:	66 2e 0f 1f 84 00 00 	nopw   %cs:0x0(%rax,%rax,1)
  100176:	00 00 00 
  100179:	66 2e 0f 1f 84 00 00 	nopw   %cs:0x0(%rax,%rax,1)
  100180:	00 00 00 
  100183:	66 2e 0f 1f 84 00 00 	nopw   %cs:0x0(%rax,%rax,1)
  10018a:	00 00 00 
  10018d:	66 2e 0f 1f 84 00 00 	nopw   %cs:0x0(%rax,%rax,1)
  100194:	00 00 00 
  100197:	66 2e 0f 1f 84 00 00 	nopw   %cs:0x0(%rax,%rax,1)
  10019e:	00 00 00 
  1001a1:	66 2e 0f 1f 84 00 00 	nopw   %cs:0x0(%rax,%rax,1)
  1001a8:	00 00 00 
  1001ab:	66 2e 0f 1f 84 00 00 	nopw   %cs:0x0(%rax,%rax,1)
  1001b2:	00 00 00 
  1001b5:	66 2e 0f 1f 84 00 00 	nopw   %cs:0x0(%rax,%rax,1)
  1001bc:	00 00 00 
  1001bf:	66 2e 0f 1f 84 00 00 	nopw   %cs:0x0(%rax,%rax,1)
  1001c6:	00 00 00 
  1001c9:	66 2e 0f 1f 84 00 00 	nopw   %cs:0x0(%rax,%rax,1)
  1001d0:	00 00 00 
  1001d3:	66 2e 0f 1f 84 00 00 	nopw   %cs:0x0(%rax,%rax,1)
  1001da:	00 00 00 
  1001dd:	66 2e 0f 1f 84 00 00 	nopw   %cs:0x0(%rax,%rax,1)
  1001e4:	00 00 00 
  1001e7:	66 2e 0f 1f 84 00 00 	nopw   %cs:0x0(%rax,%rax,1)
  1001ee:	00 00 00 
  1001f1:	66 2e 0f 1f 84 00 00 	nopw   %cs:0x0(%rax,%rax,1)
  1001f8:	00 00 00 
  1001fb:	66 2e 0f 1f 84 00 00 	nopw   %cs:0x0(%rax,%rax,1)
  100202:	00 00 00 
  100205:	66 2e 0f 1f 84 00 00 	nopw   %cs:0x0(%rax,%rax,1)
  10020c:	00 00 00 
  10020f:	66 2e 0f 1f 84 00 00 	nopw   %cs:0x0(%rax,%rax,1)
  100216:	00 00 00 
  100219:	66 2e 0f 1f 84 00 00 	nopw   %cs:0x0(%rax,%rax,1)
  100220:	00 00 00 
  100223:	66 2e 0f 1f 84 00 00 	nopw   %cs:0x0(%rax,%rax,1)
  10022a:	00 00 00 
  10022d:	66 2e 0f 1f 84 00 00 	nopw   %cs:0x0(%rax,%rax,1)
  100234:	00 00 00 
  100237:	66 2e 0f 1f 84 00 00 	nopw   %cs:0x0(%rax,%rax,1)
  10023e:	00 00 00 
  100241:	66 2e 0f 1f 84 00 00 	nopw   %cs:0x0(%rax,%rax,1)
  100248:	00 00 00 
  10024b:	66 2e 0f 1f 84 00 00 	nopw   %cs:0x0(%rax,%rax,1)
  100252:	00 00 00 
  100255:	66 2e 0f 1f 84 00 00 	nopw   %cs:0x0(%rax,%rax,1)
  10025c:	00 00 00 
  10025f:	66 2e 0f 1f 84 00 00 	nopw   %cs:0x0(%rax,%rax,1)
  100266:	00 00 00 
  100269:	66 2e 0f 1f 84 00 00 	nopw   %cs:0x0(%rax,%rax,1)
  100270:	00 00 00 
  100273:	66 2e 0f 1f 84 00 00 	nopw   %cs:0x0(%rax,%rax,1)
  10027a:	00 00 00 
  10027d:	66 2e 0f 1f 84 00 00 	nopw   %cs:0x0(%rax,%rax,1)
  100284:	00 00 00 
  100287:	66 2e 0f 1f 84 00 00 	nopw   %cs:0x0(%rax,%rax,1)
  10028e:	00 00 00 
  100291:	66 2e 0f 1f 84 00 00 	nopw   %cs:0x0(%rax,%rax,1)
  100298:	00 00 00 
  10029b:	66 2e 0f 1f 84 00 00 	nopw   %cs:0x0(%rax,%rax,1)
  1002a2:	00 00 00 
  1002a5:	66 2e 0f 1f 84 00 00 	nopw   %cs:0x0(%rax,%rax,1)
  1002ac:	00 00 00 
  1002af:	66 2e 0f 1f 84 00 00 	nopw   %cs:0x0(%rax,%rax,1)
  1002b6:	00 00 00 
  1002b9:	66 2e 0f 1f 84 00 00 	nopw   %cs:0x0(%rax,%rax,1)
  1002c0:	00 00 00 
  1002c3:	66 2e 0f 1f 84 00 00 	nopw   %cs:0x0(%rax,%rax,1)
  1002ca:	00 00 00 
  1002cd:	66 2e 0f 1f 84 00 00 	nopw   %cs:0x0(%rax,%rax,1)
  1002d4:	00 00 00 
  1002d7:	66 2e 0f 1f 84 00 00 	nopw   %cs:0x0(%rax,%rax,1)
  1002de:	00 00 00 
  1002e1:	66 2e 0f 1f 84 00 00 	nopw   %cs:0x0(%rax,%rax,1)
  1002e8:	00 00 00 
  1002eb:	66 2e 0f 1f 84 00 00 	nopw   %cs:0x0(%rax,%rax,1)
  1002f2:	00 00 00 
  1002f5:	66 2e 0f 1f 84 00 00 	nopw   %cs:0x0(%rax,%rax,1)
  1002fc:	00 00 00 
  1002ff:	66 2e 0f 1f 84 00 00 	nopw   %cs:0x0(%rax,%rax,1)
  100306:	00 00 00 
  100309:	66 2e 0f 1f 84 00 00 	nopw   %cs:0x0(%rax,%rax,1)
  100310:	00 00 00 
  100313:	66 2e 0f 1f 84 00 00 	nopw   %cs:0x0(%rax,%rax,1)
  10031a:	00 00 00 
  10031d:	66 2e 0f 1f 84 00 00 	nopw   %cs:0x0(%rax,%rax,1)
  100324:	00 00 00 
  100327:	66 2e 0f 1f 84 00 00 	nopw   %cs:0x0(%rax,%rax,1)
  10032e:	00 00 00 
  100331:	66 2e 0f 1f 84 00 00 	nopw   %cs:0x0(%rax,%rax,1)
  100338:	00 00 00 
  10033b:	66 2e 0f 1f 84 00 00 	nopw   %cs:0x0(%rax,%rax,1)
  100342:	00 00 00 
  100345:	66 2e 0f 1f 84 00 00 	nopw   %cs:0x0(%rax,%rax,1)
  10034c:	00 00 00 
  10034f:	66 2e 0f 1f 84 00 00 	nopw   %cs:0x0(%rax,%rax,1)
  100356:	00 00 00 
  100359:	66 2e 0f 1f 84 00 00 	nopw   %cs:0x0(%rax,%rax,1)
  100360:	00 00 00 
  100363:	66 2e 0f 1f 84 00 00 	nopw   %cs:0x0(%rax,%rax,1)
  10036a:	00 00 00 
  10036d:	66 2e 0f 1f 84 00 00 	nopw   %cs:0x0(%rax,%rax,1)
  100374:	00 00 00 
  100377:	66 2e 0f 1f 84 00 00 	nopw   %cs:0x0(%rax,%rax,1)
  10037e:	00 00 00 
  100381:	66 2e 0f 1f 84 00 00 	nopw   %cs:0x0(%rax,%rax,1)
  100388:	00 00 00 
  10038b:	66 2e 0f 1f 84 00 00 	nopw   %cs:0x0(%rax,%rax,1)
  100392:	00 00 00 
  100395:	66 2e 0f 1f 84 00 00 	nopw   %cs:0x0(%rax,%rax,1)
  10039c:	00 00 00 
  10039f:	66 2e 0f 1f 84 00 00 	nopw   %cs:0x0(%rax,%rax,1)
  1003a6:	00 00 00 
  1003a9:	66 2e 0f 1f 84 00 00 	nopw   %cs:0x0(%rax,%rax,1)
  1003b0:	00 00 00 
  1003b3:	66 2e 0f 1f 84 00 00 	nopw   %cs:0x0(%rax,%rax,1)
  1003ba:	00 00 00 
  1003bd:	66 2e 0f 1f 84 00 00 	nopw   %cs:0x0(%rax,%rax,1)
  1003c4:	00 00 00 
  1003c7:	66 2e 0f 1f 84 00 00 	nopw   %cs:0x0(%rax,%rax,1)
  1003ce:	00 00 00 
  1003d1:	66 2e 0f 1f 84 00 00 	nopw   %cs:0x0(%rax,%rax,1)
  1003d8:	00 00 00 
  1003db:	66 2e 0f 1f 84 00 00 	nopw   %cs:0x0(%rax,%rax,1)
  1003e2:	00 00 00 
  1003e5:	66 2e 0f 1f 84 00 00 	nopw   %cs:0x0(%rax,%rax,1)
  1003ec:	00 00 00 
  1003ef:	66 2e 0f 1f 84 00 00 	nopw   %cs:0x0(%rax,%rax,1)
  1003f6:	00 00 00 
  1003f9:	66 2e 0f 1f 84 00 00 	nopw   %cs:0x0(%rax,%rax,1)
  100400:	00 00 00 
  100403:	66 2e 0f 1f 84 00 00 	nopw   %cs:0x0(%rax,%rax,1)
  10040a:	00 00 00 
  10040d:	66 2e 0f 1f 84 00 00 	nopw   %cs:0x0(%rax,%rax,1)
  100414:	00 00 00 
  100417:	66 2e 0f 1f 84 00 00 	nopw   %cs:0x0(%rax,%rax,1)
  10041e:	00 00 00 
  100421:	66 2e 0f 1f 84 00 00 	nopw   %cs:0x0(%rax,%rax,1)
  100428:	00 00 00 
  10042b:	66 2e 0f 1f 84 00 00 	nopw   %cs:0x0(%rax,%rax,1)
  100432:	00 00 00 
  100435:	66 2e 0f 1f 84 00 00 	nopw   %cs:0x0(%rax,%rax,1)
  10043c:	00 00 00 
  10043f:	66 2e 0f 1f 84 00 00 	nopw   %cs:0x0(%rax,%rax,1)
  100446:	00 00 00 
  100449:	66 2e 0f 1f 84 00 00 	nopw   %cs:0x0(%rax,%rax,1)
  100450:	00 00 00 
  100453:	66 2e 0f 1f 84 00 00 	nopw   %cs:0x0(%rax,%rax,1)
  10045a:	00 00 00 
  10045d:	66 2e 0f 1f 84 00 00 	nopw   %cs:0x0(%rax,%rax,1)
  100464:	00 00 00 
  100467:	66 2e 0f 1f 84 00 00 	nopw   %cs:0x0(%rax,%rax,1)
  10046e:	00 00 00 
  100471:	66 2e 0f 1f 84 00 00 	nopw   %cs:0x0(%rax,%rax,1)
  100478:	00 00 00 
  10047b:	66 2e 0f 1f 84 00 00 	nopw   %cs:0x0(%rax,%rax,1)
  100482:	00 00 00 
  100485:	66 2e 0f 1f 84 00 00 	nopw   %cs:0x0(%rax,%rax,1)
  10048c:	00 00 00 
  10048f:	66 2e 0f 1f 84 00 00 	nopw   %cs:0x0(%rax,%rax,1)
  100496:	00 00 00 
  100499:	66 2e 0f 1f 84 00 00 	nopw   %cs:0x0(%rax,%rax,1)
  1004a0:	00 00 00 
  1004a3:	66 2e 0f 1f 84 00 00 	nopw   %cs:0x0(%rax,%rax,1)
  1004aa:	00 00 00 
  1004ad:	66 2e 0f 1f 84 00 00 	nopw   %cs:0x0(%rax,%rax,1)
  1004b4:	00 00 00 
  1004b7:	66 2e 0f 1f 84 00 00 	nopw   %cs:0x0(%rax,%rax,1)
  1004be:	00 00 00 
  1004c1:	66 2e 0f 1f 84 00 00 	nopw   %cs:0x0(%rax,%rax,1)
  1004c8:	00 00 00 
  1004cb:	66 2e 0f 1f 84 00 00 	nopw   %cs:0x0(%rax,%rax,1)
  1004d2:	00 00 00 
  1004d5:	66 2e 0f 1f 84 00 00 	nopw   %cs:0x0(%rax,%rax,1)
  1004dc:	00 00 00 
  1004df:	66 2e 0f 1f 84 00 00 	nopw   %cs:0x0(%rax,%rax,1)
  1004e6:	00 00 00 
  1004e9:	66 2e 0f 1f 84 00 00 	nopw   %cs:0x0(%rax,%rax,1)
  1004f0:	00 00 00 
  1004f3:	66 2e 0f 1f 84 00 00 	nopw   %cs:0x0(%rax,%rax,1)
  1004fa:	00 00 00 
  1004fd:	66 2e 0f 1f 84 00 00 	nopw   %cs:0x0(%rax,%rax,1)
  100504:	00 00 00 
  100507:	66 2e 0f 1f 84 00 00 	nopw   %cs:0x0(%rax,%rax,1)
  10050e:	00 00 00 
  100511:	66 2e 0f 1f 84 00 00 	nopw   %cs:0x0(%rax,%rax,1)
  100518:	00 00 00 
  10051b:	66 2e 0f 1f 84 00 00 	nopw   %cs:0x0(%rax,%rax,1)
  100522:	00 00 00 
  100525:	66 2e 0f 1f 84 00 00 	nopw   %cs:0x0(%rax,%rax,1)
  10052c:	00 00 00 
  10052f:	66 2e 0f 1f 84 00 00 	nopw   %cs:0x0(%rax,%rax,1)
  100536:	00 00 00 
  100539:	66 2e 0f 1f 84 00 00 	nopw   %cs:0x0(%rax,%rax,1)
  100540:	00 00 00 
  100543:	66 2e 0f 1f 84 00 00 	nopw   %cs:0x0(%rax,%rax,1)
  10054a:	00 00 00 
  10054d:	66 2e 0f 1f 84 00 00 	nopw   %cs:0x0(%rax,%rax,1)
  100554:	00 00 00 
  100557:	66 2e 0f 1f 84 00 00 	nopw   %cs:0x0(%rax,%rax,1)
  10055e:	00 00 00 
  100561:	66 2e 0f 1f 84 00 00 	nopw   %cs:0x0(%rax,%rax,1)
  100568:	00 00 00 
  10056b:	66 2e 0f 1f 84 00 00 	nopw   %cs:0x0(%rax,%rax,1)
  100572:	00 00 00 
  100575:	66 2e 0f 1f 84 00 00 	nopw   %cs:0x0(%rax,%rax,1)
  10057c:	00 00 00 
  10057f:	66 2e 0f 1f 84 00 00 	nopw   %cs:0x0(%rax,%rax,1)
  100586:	00 00 00 
  100589:	66 2e 0f 1f 84 00 00 	nopw   %cs:0x0(%rax,%rax,1)
  100590:	00 00 00 
  100593:	66 2e 0f 1f 84 00 00 	nopw   %cs:0x0(%rax,%rax,1)
  10059a:	00 00 00 
  10059d:	66 2e 0f 1f 84 00 00 	nopw   %cs:0x0(%rax,%rax,1)
  1005a4:	00 00 00 
  1005a7:	66 2e 0f 1f 84 00 00 	nopw   %cs:0x0(%rax,%rax,1)
  1005ae:	00 00 00 
  1005b1:	66 2e 0f 1f 84 00 00 	nopw   %cs:0x0(%rax,%rax,1)
  1005b8:	00 00 00 
  1005bb:	66 2e 0f 1f 84 00 00 	nopw   %cs:0x0(%rax,%rax,1)
  1005c2:	00 00 00 
  1005c5:	66 2e 0f 1f 84 00 00 	nopw   %cs:0x0(%rax,%rax,1)
  1005cc:	00 00 00 
  1005cf:	66 2e 0f 1f 84 00 00 	nopw   %cs:0x0(%rax,%rax,1)
  1005d6:	00 00 00 
  1005d9:	66 2e 0f 1f 84 00 00 	nopw   %cs:0x0(%rax,%rax,1)
  1005e0:	00 00 00 
  1005e3:	66 2e 0f 1f 84 00 00 	nopw   %cs:0x0(%rax,%rax,1)
  1005ea:	00 00 00 
  1005ed:	66 2e 0f 1f 84 00 00 	nopw   %cs:0x0(%rax,%rax,1)
  1005f4:	00 00 00 
  1005f7:	66 2e 0f 1f 84 00 00 	nopw   %cs:0x0(%rax,%rax,1)
  1005fe:	00 00 00 
  100601:	66 2e 0f 1f 84 00 00 	nopw   %cs:0x0(%rax,%rax,1)
  100608:	00 00 00 
  10060b:	66 2e 0f 1f 84 00 00 	nopw   %cs:0x0(%rax,%rax,1)
  100612:	00 00 00 
  100615:	66 2e 0f 1f 84 00 00 	nopw   %cs:0x0(%rax,%rax,1)
  10061c:	00 00 00 
  10061f:	66 2e 0f 1f 84 00 00 	nopw   %cs:0x0(%rax,%rax,1)
  100626:	00 00 00 
  100629:	66 2e 0f 1f 84 00 00 	nopw   %cs:0x0(%rax,%rax,1)
  100630:	00 00 00 
  100633:	66 2e 0f 1f 84 00 00 	nopw   %cs:0x0(%rax,%rax,1)
  10063a:	00 00 00 
  10063d:	66 2e 0f 1f 84 00 00 	nopw   %cs:0x0(%rax,%rax,1)
  100644:	00 00 00 
  100647:	66 2e 0f 1f 84 00 00 	nopw   %cs:0x0(%rax,%rax,1)
  10064e:	00 00 00 
  100651:	66 2e 0f 1f 84 00 00 	nopw   %cs:0x0(%rax,%rax,1)
  100658:	00 00 00 
  10065b:	66 2e 0f 1f 84 00 00 	nopw   %cs:0x0(%rax,%rax,1)
  100662:	00 00 00 
  100665:	66 2e 0f 1f 84 00 00 	nopw   %cs:0x0(%rax,%rax,1)
  10066c:	00 00 00 
  10066f:	66 2e 0f 1f 84 00 00 	nopw   %cs:0x0(%rax,%rax,1)
  100676:	00 00 00 
  100679:	66 2e 0f 1f 84 00 00 	nopw   %cs:0x0(%rax,%rax,1)
  100680:	00 00 00 
  100683:	66 2e 0f 1f 84 00 00 	nopw   %cs:0x0(%rax,%rax,1)
  10068a:	00 00 00 
  10068d:	66 2e 0f 1f 84 00 00 	nopw   %cs:0x0(%rax,%rax,1)
  100694:	00 00 00 
  100697:	66 2e 0f 1f 84 00 00 	nopw   %cs:0x0(%rax,%rax,1)
  10069e:	00 00 00 
  1006a1:	66 2e 0f 1f 84 00 00 	nopw   %cs:0x0(%rax,%rax,1)
  1006a8:	00 00 00 
  1006ab:	66 2e 0f 1f 84 00 00 	nopw   %cs:0x0(%rax,%rax,1)
  1006b2:	00 00 00 
  1006b5:	66 2e 0f 1f 84 00 00 	nopw   %cs:0x0(%rax,%rax,1)
  1006bc:	00 00 00 
  1006bf:	66 2e 0f 1f 84 00 00 	nopw   %cs:0x0(%rax,%rax,1)
  1006c6:	00 00 00 
  1006c9:	66 2e 0f 1f 84 00 00 	nopw   %cs:0x0(%rax,%rax,1)
  1006d0:	00 00 00 
  1006d3:	66 2e 0f 1f 84 00 00 	nopw   %cs:0x0(%rax,%rax,1)
  1006da:	00 00 00 
  1006dd:	66 2e 0f 1f 84 00 00 	nopw   %cs:0x0(%rax,%rax,1)
  1006e4:	00 00 00 
  1006e7:	66 2e 0f 1f 84 00 00 	nopw   %cs:0x0(%rax,%rax,1)
  1006ee:	00 00 00 
  1006f1:	66 2e 0f 1f 84 00 00 	nopw   %cs:0x0(%rax,%rax,1)
  1006f8:	00 00 00 
  1006fb:	66 2e 0f 1f 84 00 00 	nopw   %cs:0x0(%rax,%rax,1)
  100702:	00 00 00 
  100705:	66 2e 0f 1f 84 00 00 	nopw   %cs:0x0(%rax,%rax,1)
  10070c:	00 00 00 
  10070f:	66 2e 0f 1f 84 00 00 	nopw   %cs:0x0(%rax,%rax,1)
  100716:	00 00 00 
  100719:	66 2e 0f 1f 84 00 00 	nopw   %cs:0x0(%rax,%rax,1)
  100720:	00 00 00 
  100723:	66 2e 0f 1f 84 00 00 	nopw   %cs:0x0(%rax,%rax,1)
  10072a:	00 00 00 
  10072d:	66 2e 0f 1f 84 00 00 	nopw   %cs:0x0(%rax,%rax,1)
  100734:	00 00 00 
  100737:	66 2e 0f 1f 84 00 00 	nopw   %cs:0x0(%rax,%rax,1)
  10073e:	00 00 00 
  100741:	66 2e 0f 1f 84 00 00 	nopw   %cs:0x0(%rax,%rax,1)
  100748:	00 00 00 
  10074b:	66 2e 0f 1f 84 00 00 	nopw   %cs:0x0(%rax,%rax,1)
  100752:	00 00 00 
  100755:	66 2e 0f 1f 84 00 00 	nopw   %cs:0x0(%rax,%rax,1)
  10075c:	00 00 00 
  10075f:	66 2e 0f 1f 84 00 00 	nopw   %cs:0x0(%rax,%rax,1)
  100766:	00 00 00 
  100769:	66 2e 0f 1f 84 00 00 	nopw   %cs:0x0(%rax,%rax,1)
  100770:	00 00 00 
  100773:	66 2e 0f 1f 84 00 00 	nopw   %cs:0x0(%rax,%rax,1)
  10077a:	00 00 00 
  10077d:	66 2e 0f 1f 84 00 00 	nopw   %cs:0x0(%rax,%rax,1)
  100784:	00 00 00 
  100787:	66 2e 0f 1f 84 00 00 	nopw   %cs:0x0(%rax,%rax,1)
  10078e:	00 00 00 
  100791:	66 2e 0f 1f 84 00 00 	nopw   %cs:0x0(%rax,%rax,1)
  100798:	00 00 00 
  10079b:	66 2e 0f 1f 84 00 00 	nopw   %cs:0x0(%rax,%rax,1)
  1007a2:	00 00 00 
  1007a5:	66 2e 0f 1f 84 00 00 	nopw   %cs:0x0(%rax,%rax,1)
  1007ac:	00 00 00 
  1007af:	66 2e 0f 1f 84 00 00 	nopw   %cs:0x0(%rax,%rax,1)
  1007b6:	00 00 00 
  1007b9:	66 2e 0f 1f 84 00 00 	nopw   %cs:0x0(%rax,%rax,1)
  1007c0:	00 00 00 
  1007c3:	66 2e 0f 1f 84 00 00 	nopw   %cs:0x0(%rax,%rax,1)
  1007ca:	00 00 00 
  1007cd:	66 2e 0f 1f 84 00 00 	nopw   %cs:0x0(%rax,%rax,1)
  1007d4:	00 00 00 
  1007d7:	66 2e 0f 1f 84 00 00 	nopw   %cs:0x0(%rax,%rax,1)
  1007de:	00 00 00 
  1007e1:	66 2e 0f 1f 84 00 00 	nopw   %cs:0x0(%rax,%rax,1)
  1007e8:	00 00 00 
  1007eb:	66 2e 0f 1f 84 00 00 	nopw   %cs:0x0(%rax,%rax,1)
  1007f2:	00 00 00 
  1007f5:	66 2e 0f 1f 84 00 00 	nopw   %cs:0x0(%rax,%rax,1)
  1007fc:	00 00 00 
  1007ff:	66 2e 0f 1f 84 00 00 	nopw   %cs:0x0(%rax,%rax,1)
  100806:	00 00 00 
  100809:	66 2e 0f 1f 84 00 00 	nopw   %cs:0x0(%rax,%rax,1)
  100810:	00 00 00 
  100813:	66 2e 0f 1f 84 00 00 	nopw   %cs:0x0(%rax,%rax,1)
  10081a:	00 00 00 
  10081d:	66 2e 0f 1f 84 00 00 	nopw   %cs:0x0(%rax,%rax,1)
  100824:	00 00 00 
  100827:	66 2e 0f 1f 84 00 00 	nopw   %cs:0x0(%rax,%rax,1)
  10082e:	00 00 00 
  100831:	66 2e 0f 1f 84 00 00 	nopw   %cs:0x0(%rax,%rax,1)
  100838:	00 00 00 
  10083b:	66 2e 0f 1f 84 00 00 	nopw   %cs:0x0(%rax,%rax,1)
  100842:	00 00 00 
  100845:	66 2e 0f 1f 84 00 00 	nopw   %cs:0x0(%rax,%rax,1)
  10084c:	00 00 00 
  10084f:	66 2e 0f 1f 84 00 00 	nopw   %cs:0x0(%rax,%rax,1)
  100856:	00 00 00 
  100859:	66 2e 0f 1f 84 00 00 	nopw   %cs:0x0(%rax,%rax,1)
  100860:	00 00 00 
  100863:	66 2e 0f 1f 84 00 00 	nopw   %cs:0x0(%rax,%rax,1)
  10086a:	00 00 00 
  10086d:	66 2e 0f 1f 84 00 00 	nopw   %cs:0x0(%rax,%rax,1)
  100874:	00 00 00 
  100877:	66 2e 0f 1f 84 00 00 	nopw   %cs:0x0(%rax,%rax,1)
  10087e:	00 00 00 
  100881:	66 2e 0f 1f 84 00 00 	nopw   %cs:0x0(%rax,%rax,1)
  100888:	00 00 00 
  10088b:	66 2e 0f 1f 84 00 00 	nopw   %cs:0x0(%rax,%rax,1)
  100892:	00 00 00 
  100895:	66 2e 0f 1f 84 00 00 	nopw   %cs:0x0(%rax,%rax,1)
  10089c:	00 00 00 
  10089f:	66 2e 0f 1f 84 00 00 	nopw   %cs:0x0(%rax,%rax,1)
  1008a6:	00 00 00 
  1008a9:	66 2e 0f 1f 84 00 00 	nopw   %cs:0x0(%rax,%rax,1)
  1008b0:	00 00 00 
  1008b3:	66 2e 0f 1f 84 00 00 	nopw   %cs:0x0(%rax,%rax,1)
  1008ba:	00 00 00 
  1008bd:	66 2e 0f 1f 84 00 00 	nopw   %cs:0x0(%rax,%rax,1)
  1008c4:	00 00 00 
  1008c7:	66 2e 0f 1f 84 00 00 	nopw   %cs:0x0(%rax,%rax,1)
  1008ce:	00 00 00 
  1008d1:	66 2e 0f 1f 84 00 00 	nopw   %cs:0x0(%rax,%rax,1)
  1008d8:	00 00 00 
  1008db:	66 2e 0f 1f 84 00 00 	nopw   %cs:0x0(%rax,%rax,1)
  1008e2:	00 00 00 
  1008e5:	66 2e 0f 1f 84 00 00 	nopw   %cs:0x0(%rax,%rax,1)
  1008ec:	00 00 00 
  1008ef:	66 2e 0f 1f 84 00 00 	nopw   %cs:0x0(%rax,%rax,1)
  1008f6:	00 00 00 
  1008f9:	66 2e 0f 1f 84 00 00 	nopw   %cs:0x0(%rax,%rax,1)
  100900:	00 00 00 
  100903:	66 2e 0f 1f 84 00 00 	nopw   %cs:0x0(%rax,%rax,1)
  10090a:	00 00 00 
  10090d:	66 2e 0f 1f 84 00 00 	nopw   %cs:0x0(%rax,%rax,1)
  100914:	00 00 00 
  100917:	66 2e 0f 1f 84 00 00 	nopw   %cs:0x0(%rax,%rax,1)
  10091e:	00 00 00 
  100921:	66 2e 0f 1f 84 00 00 	nopw   %cs:0x0(%rax,%rax,1)
  100928:	00 00 00 
  10092b:	66 2e 0f 1f 84 00 00 	nopw   %cs:0x0(%rax,%rax,1)
  100932:	00 00 00 
  100935:	66 2e 0f 1f 84 00 00 	nopw   %cs:0x0(%rax,%rax,1)
  10093c:	00 00 00 
  10093f:	66 2e 0f 1f 84 00 00 	nopw   %cs:0x0(%rax,%rax,1)
  100946:	00 00 00 
  100949:	66 2e 0f 1f 84 00 00 	nopw   %cs:0x0(%rax,%rax,1)
  100950:	00 00 00 
  100953:	66 2e 0f 1f 84 00 00 	nopw   %cs:0x0(%rax,%rax,1)
  10095a:	00 00 00 
  10095d:	66 2e 0f 1f 84 00 00 	nopw   %cs:0x0(%rax,%rax,1)
  100964:	00 00 00 
  100967:	66 2e 0f 1f 84 00 00 	nopw   %cs:0x0(%rax,%rax,1)
  10096e:	00 00 00 
  100971:	66 2e 0f 1f 84 00 00 	nopw   %cs:0x0(%rax,%rax,1)
  100978:	00 00 00 
  10097b:	66 2e 0f 1f 84 00 00 	nopw   %cs:0x0(%rax,%rax,1)
  100982:	00 00 00 
  100985:	66 2e 0f 1f 84 00 00 	nopw   %cs:0x0(%rax,%rax,1)
  10098c:	00 00 00 
  10098f:	66 2e 0f 1f 84 00 00 	nopw   %cs:0x0(%rax,%rax,1)
  100996:	00 00 00 
  100999:	66 2e 0f 1f 84 00 00 	nopw   %cs:0x0(%rax,%rax,1)
  1009a0:	00 00 00 
  1009a3:	66 2e 0f 1f 84 00 00 	nopw   %cs:0x0(%rax,%rax,1)
  1009aa:	00 00 00 
  1009ad:	66 2e 0f 1f 84 00 00 	nopw   %cs:0x0(%rax,%rax,1)
  1009b4:	00 00 00 
  1009b7:	66 2e 0f 1f 84 00 00 	nopw   %cs:0x0(%rax,%rax,1)
  1009be:	00 00 00 
  1009c1:	66 2e 0f 1f 84 00 00 	nopw   %cs:0x0(%rax,%rax,1)
  1009c8:	00 00 00 
  1009cb:	66 2e 0f 1f 84 00 00 	nopw   %cs:0x0(%rax,%rax,1)
  1009d2:	00 00 00 
  1009d5:	66 2e 0f 1f 84 00 00 	nopw   %cs:0x0(%rax,%rax,1)
  1009dc:	00 00 00 
  1009df:	66 2e 0f 1f 84 00 00 	nopw   %cs:0x0(%rax,%rax,1)
  1009e6:	00 00 00 
  1009e9:	66 2e 0f 1f 84 00 00 	nopw   %cs:0x0(%rax,%rax,1)
  1009f0:	00 00 00 
  1009f3:	66 2e 0f 1f 84 00 00 	nopw   %cs:0x0(%rax,%rax,1)
  1009fa:	00 00 00 
  1009fd:	66 2e 0f 1f 84 00 00 	nopw   %cs:0x0(%rax,%rax,1)
  100a04:	00 00 00 
  100a07:	66 2e 0f 1f 84 00 00 	nopw   %cs:0x0(%rax,%rax,1)
  100a0e:	00 00 00 
  100a11:	66 2e 0f 1f 84 00 00 	nopw   %cs:0x0(%rax,%rax,1)
  100a18:	00 00 00 
  100a1b:	66 2e 0f 1f 84 00 00 	nopw   %cs:0x0(%rax,%rax,1)
  100a22:	00 00 00 
  100a25:	66 2e 0f 1f 84 00 00 	nopw   %cs:0x0(%rax,%rax,1)
  100a2c:	00 00 00 
  100a2f:	66 2e 0f 1f 84 00 00 	nopw   %cs:0x0(%rax,%rax,1)
  100a36:	00 00 00 
  100a39:	66 2e 0f 1f 84 00 00 	nopw   %cs:0x0(%rax,%rax,1)
  100a40:	00 00 00 
  100a43:	66 2e 0f 1f 84 00 00 	nopw   %cs:0x0(%rax,%rax,1)
  100a4a:	00 00 00 
  100a4d:	66 2e 0f 1f 84 00 00 	nopw   %cs:0x0(%rax,%rax,1)
  100a54:	00 00 00 
  100a57:	66 2e 0f 1f 84 00 00 	nopw   %cs:0x0(%rax,%rax,1)
  100a5e:	00 00 00 
  100a61:	66 2e 0f 1f 84 00 00 	nopw   %cs:0x0(%rax,%rax,1)
  100a68:	00 00 00 
  100a6b:	66 2e 0f 1f 84 00 00 	nopw   %cs:0x0(%rax,%rax,1)
  100a72:	00 00 00 
  100a75:	66 2e 0f 1f 84 00 00 	nopw   %cs:0x0(%rax,%rax,1)
  100a7c:	00 00 00 
  100a7f:	66 2e 0f 1f 84 00 00 	nopw   %cs:0x0(%rax,%rax,1)
  100a86:	00 00 00 
  100a89:	66 2e 0f 1f 84 00 00 	nopw   %cs:0x0(%rax,%rax,1)
  100a90:	00 00 00 
  100a93:	66 2e 0f 1f 84 00 00 	nopw   %cs:0x0(%rax,%rax,1)
  100a9a:	00 00 00 
  100a9d:	66 2e 0f 1f 84 00 00 	nopw   %cs:0x0(%rax,%rax,1)
  100aa4:	00 00 00 
  100aa7:	66 2e 0f 1f 84 00 00 	nopw   %cs:0x0(%rax,%rax,1)
  100aae:	00 00 00 
  100ab1:	66 2e 0f 1f 84 00 00 	nopw   %cs:0x0(%rax,%rax,1)
  100ab8:	00 00 00 
  100abb:	66 2e 0f 1f 84 00 00 	nopw   %cs:0x0(%rax,%rax,1)
  100ac2:	00 00 00 
  100ac5:	66 2e 0f 1f 84 00 00 	nopw   %cs:0x0(%rax,%rax,1)
  100acc:	00 00 00 
  100acf:	66 2e 0f 1f 84 00 00 	nopw   %cs:0x0(%rax,%rax,1)
  100ad6:	00 00 00 
  100ad9:	66 2e 0f 1f 84 00 00 	nopw   %cs:0x0(%rax,%rax,1)
  100ae0:	00 00 00 
  100ae3:	66 2e 0f 1f 84 00 00 	nopw   %cs:0x0(%rax,%rax,1)
  100aea:	00 00 00 
  100aed:	66 2e 0f 1f 84 00 00 	nopw   %cs:0x0(%rax,%rax,1)
  100af4:	00 00 00 
  100af7:	66 2e 0f 1f 84 00 00 	nopw   %cs:0x0(%rax,%rax,1)
  100afe:	00 00 00 
  100b01:	66 2e 0f 1f 84 00 00 	nopw   %cs:0x0(%rax,%rax,1)
  100b08:	00 00 00 
  100b0b:	66 2e 0f 1f 84 00 00 	nopw   %cs:0x0(%rax,%rax,1)
  100b12:	00 00 00 
  100b15:	66 2e 0f 1f 84 00 00 	nopw   %cs:0x0(%rax,%rax,1)
  100b1c:	00 00 00 
  100b1f:	66 2e 0f 1f 84 00 00 	nopw   %cs:0x0(%rax,%rax,1)
  100b26:	00 00 00 
  100b29:	66 2e 0f 1f 84 00 00 	nopw   %cs:0x0(%rax,%rax,1)
  100b30:	00 00 00 
  100b33:	66 2e 0f 1f 84 00 00 	nopw   %cs:0x0(%rax,%rax,1)
  100b3a:	00 00 00 
  100b3d:	66 2e 0f 1f 84 00 00 	nopw   %cs:0x0(%rax,%rax,1)
  100b44:	00 00 00 
  100b47:	66 2e 0f 1f 84 00 00 	nopw   %cs:0x0(%rax,%rax,1)
  100b4e:	00 00 00 
  100b51:	66 2e 0f 1f 84 00 00 	nopw   %cs:0x0(%rax,%rax,1)
  100b58:	00 00 00 
  100b5b:	66 2e 0f 1f 84 00 00 	nopw   %cs:0x0(%rax,%rax,1)
  100b62:	00 00 00 
  100b65:	66 2e 0f 1f 84 00 00 	nopw   %cs:0x0(%rax,%rax,1)
  100b6c:	00 00 00 
  100b6f:	66 2e 0f 1f 84 00 00 	nopw   %cs:0x0(%rax,%rax,1)
  100b76:	00 00 00 
  100b79:	66 2e 0f 1f 84 00 00 	nopw   %cs:0x0(%rax,%rax,1)
  100b80:	00 00 00 
  100b83:	66 2e 0f 1f 84 00 00 	nopw   %cs:0x0(%rax,%rax,1)
  100b8a:	00 00 00 
  100b8d:	66 2e 0f 1f 84 00 00 	nopw   %cs:0x0(%rax,%rax,1)
  100b94:	00 00 00 
  100b97:	66 2e 0f 1f 84 00 00 	nopw   %cs:0x0(%rax,%rax,1)
  100b9e:	00 00 00 
  100ba1:	66 2e 0f 1f 84 00 00 	nopw   %cs:0x0(%rax,%rax,1)
  100ba8:	00 00 00 
  100bab:	66 2e 0f 1f 84 00 00 	nopw   %cs:0x0(%rax,%rax,1)
  100bb2:	00 00 00 
  100bb5:	66 2e 0f 1f 84 00 00 	nopw   %cs:0x0(%rax,%rax,1)
  100bbc:	00 00 00 
  100bbf:	66 2e 0f 1f 84 00 00 	nopw   %cs:0x0(%rax,%rax,1)
  100bc6:	00 00 00 
  100bc9:	66 2e 0f 1f 84 00 00 	nopw   %cs:0x0(%rax,%rax,1)
  100bd0:	00 00 00 
  100bd3:	66 2e 0f 1f 84 00 00 	nopw   %cs:0x0(%rax,%rax,1)
  100bda:	00 00 00 
  100bdd:	66 2e 0f 1f 84 00 00 	nopw   %cs:0x0(%rax,%rax,1)
  100be4:	00 00 00 
  100be7:	66 2e 0f 1f 84 00 00 	nopw   %cs:0x0(%rax,%rax,1)
  100bee:	00 00 00 
  100bf1:	66 2e 0f 1f 84 00 00 	nopw   %cs:0x0(%rax,%rax,1)
  100bf8:	00 00 00 
  100bfb:	66 2e 0f 1f 84 00 00 	nopw   %cs:0x0(%rax,%rax,1)
  100c02:	00 00 00 
  100c05:	66 2e 0f 1f 84 00 00 	nopw   %cs:0x0(%rax,%rax,1)
  100c0c:	00 00 00 
  100c0f:	66 2e 0f 1f 84 00 00 	nopw   %cs:0x0(%rax,%rax,1)
  100c16:	00 00 00 
  100c19:	66 2e 0f 1f 84 00 00 	nopw   %cs:0x0(%rax,%rax,1)
  100c20:	00 00 00 
  100c23:	66 2e 0f 1f 84 00 00 	nopw   %cs:0x0(%rax,%rax,1)
  100c2a:	00 00 00 
  100c2d:	66 2e 0f 1f 84 00 00 	nopw   %cs:0x0(%rax,%rax,1)
  100c34:	00 00 00 
  100c37:	66 2e 0f 1f 84 00 00 	nopw   %cs:0x0(%rax,%rax,1)
  100c3e:	00 00 00 
  100c41:	66 2e 0f 1f 84 00 00 	nopw   %cs:0x0(%rax,%rax,1)
  100c48:	00 00 00 
  100c4b:	66 2e 0f 1f 84 00 00 	nopw   %cs:0x0(%rax,%rax,1)
  100c52:	00 00 00 
  100c55:	66 2e 0f 1f 84 00 00 	nopw   %cs:0x0(%rax,%rax,1)
  100c5c:	00 00 00 
  100c5f:	66 2e 0f 1f 84 00 00 	nopw   %cs:0x0(%rax,%rax,1)
  100c66:	00 00 00 
  100c69:	66 2e 0f 1f 84 00 00 	nopw   %cs:0x0(%rax,%rax,1)
  100c70:	00 00 00 
  100c73:	66 2e 0f 1f 84 00 00 	nopw   %cs:0x0(%rax,%rax,1)
  100c7a:	00 00 00 
  100c7d:	66 2e 0f 1f 84 00 00 	nopw   %cs:0x0(%rax,%rax,1)
  100c84:	00 00 00 
  100c87:	66 2e 0f 1f 84 00 00 	nopw   %cs:0x0(%rax,%rax,1)
  100c8e:	00 00 00 
  100c91:	66 2e 0f 1f 84 00 00 	nopw   %cs:0x0(%rax,%rax,1)
  100c98:	00 00 00 
  100c9b:	66 2e 0f 1f 84 00 00 	nopw   %cs:0x0(%rax,%rax,1)
  100ca2:	00 00 00 
  100ca5:	66 2e 0f 1f 84 00 00 	nopw   %cs:0x0(%rax,%rax,1)
  100cac:	00 00 00 
  100caf:	66 2e 0f 1f 84 00 00 	nopw   %cs:0x0(%rax,%rax,1)
  100cb6:	00 00 00 
  100cb9:	66 2e 0f 1f 84 00 00 	nopw   %cs:0x0(%rax,%rax,1)
  100cc0:	00 00 00 
  100cc3:	66 2e 0f 1f 84 00 00 	nopw   %cs:0x0(%rax,%rax,1)
  100cca:	00 00 00 
  100ccd:	66 2e 0f 1f 84 00 00 	nopw   %cs:0x0(%rax,%rax,1)
  100cd4:	00 00 00 
  100cd7:	66 2e 0f 1f 84 00 00 	nopw   %cs:0x0(%rax,%rax,1)
  100cde:	00 00 00 
  100ce1:	66 2e 0f 1f 84 00 00 	nopw   %cs:0x0(%rax,%rax,1)
  100ce8:	00 00 00 
  100ceb:	66 2e 0f 1f 84 00 00 	nopw   %cs:0x0(%rax,%rax,1)
  100cf2:	00 00 00 
  100cf5:	66 2e 0f 1f 84 00 00 	nopw   %cs:0x0(%rax,%rax,1)
  100cfc:	00 00 00 
  100cff:	66 2e 0f 1f 84 00 00 	nopw   %cs:0x0(%rax,%rax,1)
  100d06:	00 00 00 
  100d09:	66 2e 0f 1f 84 00 00 	nopw   %cs:0x0(%rax,%rax,1)
  100d10:	00 00 00 
  100d13:	66 2e 0f 1f 84 00 00 	nopw   %cs:0x0(%rax,%rax,1)
  100d1a:	00 00 00 
  100d1d:	66 2e 0f 1f 84 00 00 	nopw   %cs:0x0(%rax,%rax,1)
  100d24:	00 00 00 
  100d27:	66 2e 0f 1f 84 00 00 	nopw   %cs:0x0(%rax,%rax,1)
  100d2e:	00 00 00 
  100d31:	66 2e 0f 1f 84 00 00 	nopw   %cs:0x0(%rax,%rax,1)
  100d38:	00 00 00 
  100d3b:	66 2e 0f 1f 84 00 00 	nopw   %cs:0x0(%rax,%rax,1)
  100d42:	00 00 00 
  100d45:	66 2e 0f 1f 84 00 00 	nopw   %cs:0x0(%rax,%rax,1)
  100d4c:	00 00 00 
  100d4f:	66 2e 0f 1f 84 00 00 	nopw   %cs:0x0(%rax,%rax,1)
  100d56:	00 00 00 
  100d59:	66 2e 0f 1f 84 00 00 	nopw   %cs:0x0(%rax,%rax,1)
  100d60:	00 00 00 
  100d63:	66 2e 0f 1f 84 00 00 	nopw   %cs:0x0(%rax,%rax,1)
  100d6a:	00 00 00 
  100d6d:	66 2e 0f 1f 84 00 00 	nopw   %cs:0x0(%rax,%rax,1)
  100d74:	00 00 00 
  100d77:	66 2e 0f 1f 84 00 00 	nopw   %cs:0x0(%rax,%rax,1)
  100d7e:	00 00 00 
  100d81:	66 2e 0f 1f 84 00 00 	nopw   %cs:0x0(%rax,%rax,1)
  100d88:	00 00 00 
  100d8b:	66 2e 0f 1f 84 00 00 	nopw   %cs:0x0(%rax,%rax,1)
  100d92:	00 00 00 
  100d95:	66 2e 0f 1f 84 00 00 	nopw   %cs:0x0(%rax,%rax,1)
  100d9c:	00 00 00 
  100d9f:	66 2e 0f 1f 84 00 00 	nopw   %cs:0x0(%rax,%rax,1)
  100da6:	00 00 00 
  100da9:	66 2e 0f 1f 84 00 00 	nopw   %cs:0x0(%rax,%rax,1)
  100db0:	00 00 00 
  100db3:	66 2e 0f 1f 84 00 00 	nopw   %cs:0x0(%rax,%rax,1)
  100dba:	00 00 00 
  100dbd:	66 2e 0f 1f 84 00 00 	nopw   %cs:0x0(%rax,%rax,1)
  100dc4:	00 00 00 
  100dc7:	66 2e 0f 1f 84 00 00 	nopw   %cs:0x0(%rax,%rax,1)
  100dce:	00 00 00 
  100dd1:	66 2e 0f 1f 84 00 00 	nopw   %cs:0x0(%rax,%rax,1)
  100dd8:	00 00 00 
  100ddb:	66 2e 0f 1f 84 00 00 	nopw   %cs:0x0(%rax,%rax,1)
  100de2:	00 00 00 
  100de5:	66 2e 0f 1f 84 00 00 	nopw   %cs:0x0(%rax,%rax,1)
  100dec:	00 00 00 
  100def:	66 2e 0f 1f 84 00 00 	nopw   %cs:0x0(%rax,%rax,1)
  100df6:	00 00 00 
  100df9:	66 2e 0f 1f 84 00 00 	nopw   %cs:0x0(%rax,%rax,1)
  100e00:	00 00 00 
  100e03:	66 2e 0f 1f 84 00 00 	nopw   %cs:0x0(%rax,%rax,1)
  100e0a:	00 00 00 
  100e0d:	66 2e 0f 1f 84 00 00 	nopw   %cs:0x0(%rax,%rax,1)
  100e14:	00 00 00 
  100e17:	66 2e 0f 1f 84 00 00 	nopw   %cs:0x0(%rax,%rax,1)
  100e1e:	00 00 00 
  100e21:	66 2e 0f 1f 84 00 00 	nopw   %cs:0x0(%rax,%rax,1)
  100e28:	00 00 00 
  100e2b:	66 2e 0f 1f 84 00 00 	nopw   %cs:0x0(%rax,%rax,1)
  100e32:	00 00 00 
  100e35:	66 2e 0f 1f 84 00 00 	nopw   %cs:0x0(%rax,%rax,1)
  100e3c:	00 00 00 
  100e3f:	66 2e 0f 1f 84 00 00 	nopw   %cs:0x0(%rax,%rax,1)
  100e46:	00 00 00 
  100e49:	66 2e 0f 1f 84 00 00 	nopw   %cs:0x0(%rax,%rax,1)
  100e50:	00 00 00 
  100e53:	66 2e 0f 1f 84 00 00 	nopw   %cs:0x0(%rax,%rax,1)
  100e5a:	00 00 00 
  100e5d:	66 2e 0f 1f 84 00 00 	nopw   %cs:0x0(%rax,%rax,1)
  100e64:	00 00 00 
  100e67:	66 2e 0f 1f 84 00 00 	nopw   %cs:0x0(%rax,%rax,1)
  100e6e:	00 00 00 
  100e71:	66 2e 0f 1f 84 00 00 	nopw   %cs:0x0(%rax,%rax,1)
  100e78:	00 00 00 
  100e7b:	66 2e 0f 1f 84 00 00 	nopw   %cs:0x0(%rax,%rax,1)
  100e82:	00 00 00 
  100e85:	66 2e 0f 1f 84 00 00 	nopw   %cs:0x0(%rax,%rax,1)
  100e8c:	00 00 00 
  100e8f:	66 2e 0f 1f 84 00 00 	nopw   %cs:0x0(%rax,%rax,1)
  100e96:	00 00 00 
  100e99:	66 2e 0f 1f 84 00 00 	nopw   %cs:0x0(%rax,%rax,1)
  100ea0:	00 00 00 
  100ea3:	66 2e 0f 1f 84 00 00 	nopw   %cs:0x0(%rax,%rax,1)
  100eaa:	00 00 00 
  100ead:	66 2e 0f 1f 84 00 00 	nopw   %cs:0x0(%rax,%rax,1)
  100eb4:	00 00 00 
  100eb7:	66 2e 0f 1f 84 00 00 	nopw   %cs:0x0(%rax,%rax,1)
  100ebe:	00 00 00 
  100ec1:	66 2e 0f 1f 84 00 00 	nopw   %cs:0x0(%rax,%rax,1)
  100ec8:	00 00 00 
  100ecb:	66 2e 0f 1f 84 00 00 	nopw   %cs:0x0(%rax,%rax,1)
  100ed2:	00 00 00 
  100ed5:	66 2e 0f 1f 84 00 00 	nopw   %cs:0x0(%rax,%rax,1)
  100edc:	00 00 00 
  100edf:	66 2e 0f 1f 84 00 00 	nopw   %cs:0x0(%rax,%rax,1)
  100ee6:	00 00 00 
  100ee9:	66 2e 0f 1f 84 00 00 	nopw   %cs:0x0(%rax,%rax,1)
  100ef0:	00 00 00 
  100ef3:	66 2e 0f 1f 84 00 00 	nopw   %cs:0x0(%rax,%rax,1)
  100efa:	00 00 00 
  100efd:	66 2e 0f 1f 84 00 00 	nopw   %cs:0x0(%rax,%rax,1)
  100f04:	00 00 00 
  100f07:	66 2e 0f 1f 84 00 00 	nopw   %cs:0x0(%rax,%rax,1)
  100f0e:	00 00 00 
  100f11:	66 2e 0f 1f 84 00 00 	nopw   %cs:0x0(%rax,%rax,1)
  100f18:	00 00 00 
  100f1b:	66 2e 0f 1f 84 00 00 	nopw   %cs:0x0(%rax,%rax,1)
  100f22:	00 00 00 
  100f25:	66 2e 0f 1f 84 00 00 	nopw   %cs:0x0(%rax,%rax,1)
  100f2c:	00 00 00 
  100f2f:	66 2e 0f 1f 84 00 00 	nopw   %cs:0x0(%rax,%rax,1)
  100f36:	00 00 00 
  100f39:	66 2e 0f 1f 84 00 00 	nopw   %cs:0x0(%rax,%rax,1)
  100f40:	00 00 00 
  100f43:	66 2e 0f 1f 84 00 00 	nopw   %cs:0x0(%rax,%rax,1)
  100f4a:	00 00 00 
  100f4d:	66 2e 0f 1f 84 00 00 	nopw   %cs:0x0(%rax,%rax,1)
  100f54:	00 00 00 
  100f57:	66 2e 0f 1f 84 00 00 	nopw   %cs:0x0(%rax,%rax,1)
  100f5e:	00 00 00 
  100f61:	66 2e 0f 1f 84 00 00 	nopw   %cs:0x0(%rax,%rax,1)
  100f68:	00 00 00 
  100f6b:	66 2e 0f 1f 84 00 00 	nopw   %cs:0x0(%rax,%rax,1)
  100f72:	00 00 00 
  100f75:	66 2e 0f 1f 84 00 00 	nopw   %cs:0x0(%rax,%rax,1)
  100f7c:	00 00 00 
  100f7f:	66 2e 0f 1f 84 00 00 	nopw   %cs:0x0(%rax,%rax,1)
  100f86:	00 00 00 
  100f89:	66 2e 0f 1f 84 00 00 	nopw   %cs:0x0(%rax,%rax,1)
  100f90:	00 00 00 
  100f93:	66 2e 0f 1f 84 00 00 	nopw   %cs:0x0(%rax,%rax,1)
  100f9a:	00 00 00 
  100f9d:	66 2e 0f 1f 84 00 00 	nopw   %cs:0x0(%rax,%rax,1)
  100fa4:	00 00 00 
  100fa7:	66 2e 0f 1f 84 00 00 	nopw   %cs:0x0(%rax,%rax,1)
  100fae:	00 00 00 
  100fb1:	66 2e 0f 1f 84 00 00 	nopw   %cs:0x0(%rax,%rax,1)
  100fb8:	00 00 00 
  100fbb:	66 2e 0f 1f 84 00 00 	nopw   %cs:0x0(%rax,%rax,1)
  100fc2:	00 00 00 
  100fc5:	66 2e 0f 1f 84 00 00 	nopw   %cs:0x0(%rax,%rax,1)
  100fcc:	00 00 00 
  100fcf:	66 2e 0f 1f 84 00 00 	nopw   %cs:0x0(%rax,%rax,1)
  100fd6:	00 00 00 
  100fd9:	66 2e 0f 1f 84 00 00 	nopw   %cs:0x0(%rax,%rax,1)
  100fe0:	00 00 00 
  100fe3:	66 2e 0f 1f 84 00 00 	nopw   %cs:0x0(%rax,%rax,1)
  100fea:	00 00 00 
  100fed:	66 2e 0f 1f 84 00 00 	nopw   %cs:0x0(%rax,%rax,1)
  100ff4:	00 00 00 
  100ff7:	66 0f 1f 84 00 00 00 	nopw   0x0(%rax,%rax,1)
  100ffe:	00 00 

0000000000101000 <gdt_64>:
	...
  101008:	ff                   	(bad)  
  101009:	ff 00                	incl   (%rax)
  10100b:	00 00                	add    %al,(%rax)
  10100d:	9a                   	(bad)  
  10100e:	af                   	scas   %es:(%rdi),%eax
  10100f:	00 ff                	add    %bh,%bh
  101011:	ff 00                	incl   (%rax)
  101013:	00 00                	add    %al,(%rax)
  101015:	92                   	xchg   %eax,%edx
  101016:	cf                   	iret   
	...

0000000000101018 <gdtdesc_64>:
  101018:	17                   	(bad)  
  101019:	00 00                	add    %al,(%rax)
  10101b:	10 10                	adc    %dl,(%rax)
	...

0000000000102000 <pml4phys>:
	...

0000000000103000 <pdpt1>:
	...

0000000000104000 <pdpt2>:
	...

0000000000105000 <pde1>:
	...

0000000000106000 <pde2>:
	...

0000000000107000 <multiboot_info>:
  107000:	00 00                	add    %al,(%rax)
	...

Disassembly of section .text:

0000008004200000 <_start+0x8003fffff4>:
  8004200000:	02 b0 ad 1b 00 00    	add    0x1bad(%rax),%dh
  8004200006:	00 00                	add    %al,(%rax)
  8004200008:	fe 4f 52             	decb   0x52(%rdi)
  800420000b:	e4 48                	in     $0x48,%al

000000800420000c <entry>:
entry:

/* .globl _back_from_head64 */
/* _back_from_head64: */

    movabs   $gdtdesc_64,%rax
  800420000c:	48 b8 38 c0 22 04 80 	movabs $0x800422c038,%rax
  8004200013:	00 00 00 
    lgdt     (%rax)
  8004200016:	0f 01 10             	lgdt   (%rax)
    movw    $DATA_SEL,%ax
  8004200019:	66 b8 10 00          	mov    $0x10,%ax
    movw    %ax,%ds
  800420001d:	8e d8                	mov    %eax,%ds
    movw    %ax,%ss
  800420001f:	8e d0                	mov    %eax,%ss
    movw    %ax,%fs
  8004200021:	8e e0                	mov    %eax,%fs
    movw    %ax,%gs
  8004200023:	8e e8                	mov    %eax,%gs
    movw    %ax,%es
  8004200025:	8e c0                	mov    %eax,%es
    pushq   $CODE_SEL
  8004200027:	6a 08                	pushq  $0x8
    movabs  $relocated,%rax
  8004200029:	48 b8 36 00 20 04 80 	movabs $0x8004200036,%rax
  8004200030:	00 00 00 
    pushq   %rax
  8004200033:	50                   	push   %rax
    lretq
  8004200034:	48 cb                	lretq  

0000008004200036 <relocated>:
relocated:

	# Clear the frame pointer register (RBP)
	# so that once we get into debugging C code,
	# stack backtraces will be terminated properly.
	movq	$0x0,%rbp			# nuke frame pointer
  8004200036:	48 c7 c5 00 00 00 00 	mov    $0x0,%rbp

	# Set the stack pointer
	movabs	$(bootstacktop),%rax
  800420003d:	48 b8 00 c0 22 04 80 	movabs $0x800422c000,%rax
  8004200044:	00 00 00 
	movq  %rax,%rsp
  8004200047:	48 89 c4             	mov    %rax,%rsp

	# now to C code
    movabs $i386_init, %rax
  800420004a:	48 b8 1d 01 20 04 80 	movabs $0x800420011d,%rax
  8004200051:	00 00 00 
	call *%rax
  8004200054:	ff d0                	callq  *%rax

0000008004200056 <spin>:

	# Should never get here, but in case we do, just spin.
spin:	jmp	spin
  8004200056:	eb fe                	jmp    8004200056 <spin>

0000008004200058 <xchg>:
	if (edxp)
		*edxp = edx;
}

static inline uint32_t
xchg(volatile uint32_t *addr,uint32_t newval){
  8004200058:	55                   	push   %rbp
  8004200059:	48 89 e5             	mov    %rsp,%rbp
  800420005c:	48 83 ec 1c          	sub    $0x1c,%rsp
  8004200060:	48 89 7d e8          	mov    %rdi,-0x18(%rbp)
  8004200064:	89 75 e4             	mov    %esi,-0x1c(%rbp)
	uint32_t result;
	__asm __volatile("lock; xchgl %0, %1":
  8004200067:	48 8b 55 e8          	mov    -0x18(%rbp),%rdx
  800420006b:	8b 45 e4             	mov    -0x1c(%rbp),%eax
  800420006e:	48 8b 4d e8          	mov    -0x18(%rbp),%rcx
  8004200072:	f0 87 02             	lock xchg %eax,(%rdx)
  8004200075:	89 45 fc             	mov    %eax,-0x4(%rbp)
			 "+m" (*addr), "=a" (result):
			 "1"(newval):
			 "cc");
	return result;
  8004200078:	8b 45 fc             	mov    -0x4(%rbp),%eax
}
  800420007b:	c9                   	leaveq 
  800420007c:	c3                   	retq   

000000800420007d <lock_kernel>:

extern struct spinlock kernel_lock;

static inline void
lock_kernel(void)
{
  800420007d:	55                   	push   %rbp
  800420007e:	48 89 e5             	mov    %rsp,%rbp
	spin_lock(&kernel_lock);
  8004200081:	48 bf 80 c7 22 04 80 	movabs $0x800422c780,%rdi
  8004200088:	00 00 00 
  800420008b:	48 b8 e0 6a 21 04 80 	movabs $0x8004216ae0,%rax
  8004200092:	00 00 00 
  8004200095:	ff d0                	callq  *%rax
}
  8004200097:	5d                   	pop    %rbp
  8004200098:	c3                   	retq   

0000008004200099 <test_backtrace>:


// Test the stack backtrace function (lab 1 only)
void
test_backtrace(int x)
{
  8004200099:	55                   	push   %rbp
  800420009a:	48 89 e5             	mov    %rsp,%rbp
  800420009d:	48 83 ec 10          	sub    $0x10,%rsp
  80042000a1:	89 7d fc             	mov    %edi,-0x4(%rbp)
	cprintf("entering test_backtrace %d\n", x);
  80042000a4:	8b 45 fc             	mov    -0x4(%rbp),%eax
  80042000a7:	89 c6                	mov    %eax,%esi
  80042000a9:	48 bf 20 6e 21 04 80 	movabs $0x8004216e20,%rdi
  80042000b0:	00 00 00 
  80042000b3:	b8 00 00 00 00       	mov    $0x0,%eax
  80042000b8:	48 ba 99 8d 20 04 80 	movabs $0x8004208d99,%rdx
  80042000bf:	00 00 00 
  80042000c2:	ff d2                	callq  *%rdx
	if (x > 0)
  80042000c4:	83 7d fc 00          	cmpl   $0x0,-0x4(%rbp)
  80042000c8:	7e 16                	jle    80042000e0 <test_backtrace+0x47>
		test_backtrace(x-1);
  80042000ca:	8b 45 fc             	mov    -0x4(%rbp),%eax
  80042000cd:	83 e8 01             	sub    $0x1,%eax
  80042000d0:	89 c7                	mov    %eax,%edi
  80042000d2:	48 b8 99 00 20 04 80 	movabs $0x8004200099,%rax
  80042000d9:	00 00 00 
  80042000dc:	ff d0                	callq  *%rax
  80042000de:	eb 1b                	jmp    80042000fb <test_backtrace+0x62>
	else
		mon_backtrace(0, 0, 0);
  80042000e0:	ba 00 00 00 00       	mov    $0x0,%edx
  80042000e5:	be 00 00 00 00       	mov    $0x0,%esi
  80042000ea:	bf 00 00 00 00       	mov    $0x0,%edi
  80042000ef:	48 b8 53 16 20 04 80 	movabs $0x8004201653,%rax
  80042000f6:	00 00 00 
  80042000f9:	ff d0                	callq  *%rax
	cprintf("leaving test_backtrace %d\n", x);
  80042000fb:	8b 45 fc             	mov    -0x4(%rbp),%eax
  80042000fe:	89 c6                	mov    %eax,%esi
  8004200100:	48 bf 3c 6e 21 04 80 	movabs $0x8004216e3c,%rdi
  8004200107:	00 00 00 
  800420010a:	b8 00 00 00 00       	mov    $0x0,%eax
  800420010f:	48 ba 99 8d 20 04 80 	movabs $0x8004208d99,%rdx
  8004200116:	00 00 00 
  8004200119:	ff d2                	callq  *%rdx
}
  800420011b:	c9                   	leaveq 
  800420011c:	c3                   	retq   

000000800420011d <i386_init>:


void
i386_init(void)
{
  800420011d:	55                   	push   %rbp
  800420011e:	48 89 e5             	mov    %rsp,%rbp
	extern char edata[], end[];

	// Before doing anything else, complete the ELF loading process.
	// Clear the uninitialized global data (BSS) section of our program.
	// This ensures that all static/global variables start out zero.
	memset(edata, 0, end - edata);
  8004200121:	48 ba 10 40 52 04 80 	movabs $0x8004524010,%rdx
  8004200128:	00 00 00 
  800420012b:	48 b8 2c f0 49 04 80 	movabs $0x800449f02c,%rax
  8004200132:	00 00 00 
  8004200135:	48 29 c2             	sub    %rax,%rdx
  8004200138:	48 89 d0             	mov    %rdx,%rax
  800420013b:	48 89 c2             	mov    %rax,%rdx
  800420013e:	be 00 00 00 00       	mov    $0x0,%esi
  8004200143:	48 bf 2c f0 49 04 80 	movabs $0x800449f02c,%rdi
  800420014a:	00 00 00 
  800420014d:	48 b8 a6 f8 20 04 80 	movabs $0x800420f8a6,%rax
  8004200154:	00 00 00 
  8004200157:	ff d0                	callq  *%rax

	// Initialize the console.
	// Can't call cprintf until after we do this!
	cons_init();
  8004200159:	48 b8 f7 11 20 04 80 	movabs $0x80042011f7,%rax
  8004200160:	00 00 00 
  8004200163:	ff d0                	callq  *%rax

	cprintf("6828 decimal is %o octal!\n", 6828);
  8004200165:	be ac 1a 00 00       	mov    $0x1aac,%esi
  800420016a:	48 bf 57 6e 21 04 80 	movabs $0x8004216e57,%rdi
  8004200171:	00 00 00 
  8004200174:	b8 00 00 00 00       	mov    $0x0,%eax
  8004200179:	48 ba 99 8d 20 04 80 	movabs $0x8004208d99,%rdx
  8004200180:	00 00 00 
  8004200183:	ff d2                	callq  *%rdx

	extern char end[];
	end_debug = read_section_headers((0x10000+KERNBASE), (uintptr_t)end); 
  8004200185:	48 b8 10 40 52 04 80 	movabs $0x8004524010,%rax
  800420018c:	00 00 00 
  800420018f:	48 89 c6             	mov    %rax,%rsi
  8004200192:	48 bf 00 00 01 04 80 	movabs $0x8004010000,%rdi
  8004200199:	00 00 00 
  800420019c:	48 b8 96 52 21 04 80 	movabs $0x8004215296,%rax
  80042001a3:	00 00 00 
  80042001a6:	ff d0                	callq  *%rax
  80042001a8:	48 ba 88 17 4a 04 80 	movabs $0x80044a1788,%rdx
  80042001af:	00 00 00 
  80042001b2:	48 89 02             	mov    %rax,(%rdx)

	// Lab 2 memory management initialization functions
	x64_vm_init();
  80042001b5:	b8 00 00 00 00       	mov    $0x0,%eax
  80042001ba:	48 ba 0e 27 20 04 80 	movabs $0x800420270e,%rdx
  80042001c1:	00 00 00 
  80042001c4:	ff d2                	callq  *%rdx

	// Lab 3 user environment initialization functions
	env_init();
  80042001c6:	48 b8 d1 79 20 04 80 	movabs $0x80042079d1,%rax
  80042001cd:	00 00 00 
  80042001d0:	ff d0                	callq  *%rax
	trap_init();
  80042001d2:	48 b8 11 8f 20 04 80 	movabs $0x8004208f11,%rax
  80042001d9:	00 00 00 
  80042001dc:	ff d0                	callq  *%rax

	// Lab 4 multiprocessor initialization functions
	mp_init();
  80042001de:	48 b8 1d 62 21 04 80 	movabs $0x800421621d,%rax
  80042001e5:	00 00 00 
  80042001e8:	ff d0                	callq  *%rax
	lapic_init();
  80042001ea:	48 b8 5e 65 21 04 80 	movabs $0x800421655e,%rax
  80042001f1:	00 00 00 
  80042001f4:	ff d0                	callq  *%rax

	// Lab 4 multitasking initialization functions
	pic_init();
  80042001f6:	48 b8 c9 8a 20 04 80 	movabs $0x8004208ac9,%rax
  80042001fd:	00 00 00 
  8004200200:	ff d0                	callq  *%rax

	// Acquire the big kernel lock before waking up APs
	// Your code here:

	//Starting non-boot CPUs
	lock_kernel();
  8004200202:	48 b8 7d 00 20 04 80 	movabs $0x800420007d,%rax
  8004200209:	00 00 00 
  800420020c:	ff d0                	callq  *%rax
	boot_aps();
  800420020e:	48 b8 5c 02 20 04 80 	movabs $0x800420025c,%rax
  8004200215:	00 00 00 
  8004200218:	ff d0                	callq  *%rax

	// Start fs.
	ENV_CREATE(fs_fs, ENV_TYPE_FS);
  800420021a:	be 01 00 00 00       	mov    $0x1,%esi
  800420021f:	48 bf c3 8b 3d 04 80 	movabs $0x80043d8bc3,%rdi
  8004200226:	00 00 00 
  8004200229:	48 b8 95 80 20 04 80 	movabs $0x8004208095,%rax
  8004200230:	00 00 00 
  8004200233:	ff d0                	callq  *%rax

#if defined(TEST)
	// Don't touch -- used by grading script!
	ENV_CREATE(TEST, ENV_TYPE_USER);
  8004200235:	be 00 00 00 00       	mov    $0x0,%esi
  800420023a:	48 bf a7 86 48 04 80 	movabs $0x80044886a7,%rdi
  8004200241:	00 00 00 
  8004200244:	48 b8 95 80 20 04 80 	movabs $0x8004208095,%rax
  800420024b:	00 00 00 
  800420024e:	ff d0                	callq  *%rax
	//ENV_CREATE(user_testkbd, ENV_TYPE_USER);


#endif // TEST*
	// Schedule and run the first user environment!
	sched_yield();
  8004200250:	48 b8 93 ce 20 04 80 	movabs $0x800420ce93,%rax
  8004200257:	00 00 00 
  800420025a:	ff d0                	callq  *%rax

000000800420025c <boot_aps>:
void *mpentry_kstack;

// Start the non-boot (AP) processors.
static void
boot_aps(void)
{
  800420025c:	55                   	push   %rbp
  800420025d:	48 89 e5             	mov    %rsp,%rbp
  8004200260:	48 83 ec 30          	sub    $0x30,%rsp
	extern unsigned char mpentry_start[], mpentry_end[];
	void *code;
	struct CpuInfo *c;

	// Write entry code to unused memory at MPENTRY_PADDR
	code = KADDR(MPENTRY_PADDR);
  8004200264:	48 c7 45 f0 00 70 00 	movq   $0x7000,-0x10(%rbp)
  800420026b:	00 
  800420026c:	48 8b 45 f0          	mov    -0x10(%rbp),%rax
  8004200270:	48 c1 e8 0c          	shr    $0xc,%rax
  8004200274:	89 45 ec             	mov    %eax,-0x14(%rbp)
  8004200277:	8b 55 ec             	mov    -0x14(%rbp),%edx
  800420027a:	48 b8 b0 17 4a 04 80 	movabs $0x80044a17b0,%rax
  8004200281:	00 00 00 
  8004200284:	48 8b 00             	mov    (%rax),%rax
  8004200287:	48 39 c2             	cmp    %rax,%rdx
  800420028a:	72 32                	jb     80042002be <boot_aps+0x62>
  800420028c:	48 8b 45 f0          	mov    -0x10(%rbp),%rax
  8004200290:	48 89 c1             	mov    %rax,%rcx
  8004200293:	48 ba 78 6e 21 04 80 	movabs $0x8004216e78,%rdx
  800420029a:	00 00 00 
  800420029d:	be 82 00 00 00       	mov    $0x82,%esi
  80042002a2:	48 bf 9b 6e 21 04 80 	movabs $0x8004216e9b,%rdi
  80042002a9:	00 00 00 
  80042002ac:	b8 00 00 00 00       	mov    $0x0,%eax
  80042002b1:	49 b8 26 05 20 04 80 	movabs $0x8004200526,%r8
  80042002b8:	00 00 00 
  80042002bb:	41 ff d0             	callq  *%r8
  80042002be:	48 ba 00 00 00 04 80 	movabs $0x8004000000,%rdx
  80042002c5:	00 00 00 
  80042002c8:	48 8b 45 f0          	mov    -0x10(%rbp),%rax
  80042002cc:	48 01 d0             	add    %rdx,%rax
  80042002cf:	48 89 45 e0          	mov    %rax,-0x20(%rbp)
	memmove(code, mpentry_start, mpentry_end - mpentry_start);
  80042002d3:	48 ba 46 5d 21 04 80 	movabs $0x8004215d46,%rdx
  80042002da:	00 00 00 
  80042002dd:	48 b8 60 5c 21 04 80 	movabs $0x8004215c60,%rax
  80042002e4:	00 00 00 
  80042002e7:	48 29 c2             	sub    %rax,%rdx
  80042002ea:	48 89 d0             	mov    %rdx,%rax
  80042002ed:	48 89 c2             	mov    %rax,%rdx
  80042002f0:	48 8b 45 e0          	mov    -0x20(%rbp),%rax
  80042002f4:	48 be 60 5c 21 04 80 	movabs $0x8004215c60,%rsi
  80042002fb:	00 00 00 
  80042002fe:	48 89 c7             	mov    %rax,%rdi
  8004200301:	48 b8 31 f9 20 04 80 	movabs $0x800420f931,%rax
  8004200308:	00 00 00 
  800420030b:	ff d0                	callq  *%rax
	// Boot each AP one at a time
	for (c = cpus; c < cpus + ncpu; c++) {
  800420030d:	48 b8 20 30 4a 04 80 	movabs $0x80044a3020,%rax
  8004200314:	00 00 00 
  8004200317:	48 89 45 f8          	mov    %rax,-0x8(%rbp)
  800420031b:	e9 0b 01 00 00       	jmpq   800420042b <boot_aps+0x1cf>
		if (c == cpus + cpunum())  // We've started already.
  8004200320:	48 b8 55 67 21 04 80 	movabs $0x8004216755,%rax
  8004200327:	00 00 00 
  800420032a:	ff d0                	callq  *%rax
  800420032c:	48 98                	cltq   
  800420032e:	48 c1 e0 03          	shl    $0x3,%rax
  8004200332:	48 89 c2             	mov    %rax,%rdx
  8004200335:	48 c1 e2 04          	shl    $0x4,%rdx
  8004200339:	48 29 c2             	sub    %rax,%rdx
  800420033c:	48 b8 20 30 4a 04 80 	movabs $0x80044a3020,%rax
  8004200343:	00 00 00 
  8004200346:	48 01 d0             	add    %rdx,%rax
  8004200349:	48 3b 45 f8          	cmp    -0x8(%rbp),%rax
  800420034d:	75 05                	jne    8004200354 <boot_aps+0xf8>
			continue;
  800420034f:	e9 d2 00 00 00       	jmpq   8004200426 <boot_aps+0x1ca>

		// Tell mpentry.S what stack to use 
		mpentry_kstack = percpu_kstacks[c - cpus] + KSTKSIZE;
  8004200354:	48 8b 55 f8          	mov    -0x8(%rbp),%rdx
  8004200358:	48 b8 20 30 4a 04 80 	movabs $0x80044a3020,%rax
  800420035f:	00 00 00 
  8004200362:	48 29 c2             	sub    %rax,%rdx
  8004200365:	48 89 d0             	mov    %rdx,%rax
  8004200368:	48 c1 f8 03          	sar    $0x3,%rax
  800420036c:	48 89 c2             	mov    %rax,%rdx
  800420036f:	48 b8 ef ee ee ee ee 	movabs $0xeeeeeeeeeeeeeeef,%rax
  8004200376:	ee ee ee 
  8004200379:	48 0f af c2          	imul   %rdx,%rax
  800420037d:	48 83 c0 01          	add    $0x1,%rax
  8004200381:	48 c1 e0 10          	shl    $0x10,%rax
  8004200385:	48 89 c2             	mov    %rax,%rdx
  8004200388:	48 b8 00 40 4a 04 80 	movabs $0x80044a4000,%rax
  800420038f:	00 00 00 
  8004200392:	48 01 c2             	add    %rax,%rdx
  8004200395:	48 b8 98 17 4a 04 80 	movabs $0x80044a1798,%rax
  800420039c:	00 00 00 
  800420039f:	48 89 10             	mov    %rdx,(%rax)
		// Start the CPU at mpentry_start
		lapic_startap(c->cpu_id, PADDR(code));
  80042003a2:	48 8b 45 e0          	mov    -0x20(%rbp),%rax
  80042003a6:	48 89 45 d8          	mov    %rax,-0x28(%rbp)
  80042003aa:	48 b8 ff ff ff 03 80 	movabs $0x8003ffffff,%rax
  80042003b1:	00 00 00 
  80042003b4:	48 39 45 d8          	cmp    %rax,-0x28(%rbp)
  80042003b8:	77 32                	ja     80042003ec <boot_aps+0x190>
  80042003ba:	48 8b 45 d8          	mov    -0x28(%rbp),%rax
  80042003be:	48 89 c1             	mov    %rax,%rcx
  80042003c1:	48 ba a8 6e 21 04 80 	movabs $0x8004216ea8,%rdx
  80042003c8:	00 00 00 
  80042003cb:	be 8c 00 00 00       	mov    $0x8c,%esi
  80042003d0:	48 bf 9b 6e 21 04 80 	movabs $0x8004216e9b,%rdi
  80042003d7:	00 00 00 
  80042003da:	b8 00 00 00 00       	mov    $0x0,%eax
  80042003df:	49 b8 26 05 20 04 80 	movabs $0x8004200526,%r8
  80042003e6:	00 00 00 
  80042003e9:	41 ff d0             	callq  *%r8
  80042003ec:	48 ba 00 00 00 fc 7f 	movabs $0xffffff7ffc000000,%rdx
  80042003f3:	ff ff ff 
  80042003f6:	48 8b 45 d8          	mov    -0x28(%rbp),%rax
  80042003fa:	48 01 d0             	add    %rdx,%rax
  80042003fd:	89 c2                	mov    %eax,%edx
  80042003ff:	48 8b 45 f8          	mov    -0x8(%rbp),%rax
  8004200403:	0f b6 00             	movzbl (%rax),%eax
  8004200406:	0f b6 c0             	movzbl %al,%eax
  8004200409:	89 d6                	mov    %edx,%esi
  800420040b:	89 c7                	mov    %eax,%edi
  800420040d:	48 b8 c5 67 21 04 80 	movabs $0x80042167c5,%rax
  8004200414:	00 00 00 
  8004200417:	ff d0                	callq  *%rax
		// Wait for the CPU to finish some basic setup in mp_main()
		while(c->cpu_status != CPU_STARTED)
  8004200419:	90                   	nop
  800420041a:	48 8b 45 f8          	mov    -0x8(%rbp),%rax
  800420041e:	8b 40 04             	mov    0x4(%rax),%eax
  8004200421:	83 f8 01             	cmp    $0x1,%eax
  8004200424:	75 f4                	jne    800420041a <boot_aps+0x1be>

	// Write entry code to unused memory at MPENTRY_PADDR
	code = KADDR(MPENTRY_PADDR);
	memmove(code, mpentry_start, mpentry_end - mpentry_start);
	// Boot each AP one at a time
	for (c = cpus; c < cpus + ncpu; c++) {
  8004200426:	48 83 45 f8 78       	addq   $0x78,-0x8(%rbp)
  800420042b:	48 b8 e8 33 4a 04 80 	movabs $0x80044a33e8,%rax
  8004200432:	00 00 00 
  8004200435:	8b 00                	mov    (%rax),%eax
  8004200437:	48 98                	cltq   
  8004200439:	48 c1 e0 03          	shl    $0x3,%rax
  800420043d:	48 89 c2             	mov    %rax,%rdx
  8004200440:	48 c1 e2 04          	shl    $0x4,%rdx
  8004200444:	48 29 c2             	sub    %rax,%rdx
  8004200447:	48 b8 20 30 4a 04 80 	movabs $0x80044a3020,%rax
  800420044e:	00 00 00 
  8004200451:	48 01 d0             	add    %rdx,%rax
  8004200454:	48 3b 45 f8          	cmp    -0x8(%rbp),%rax
  8004200458:	0f 87 c2 fe ff ff    	ja     8004200320 <boot_aps+0xc4>
		lapic_startap(c->cpu_id, PADDR(code));
		// Wait for the CPU to finish some basic setup in mp_main()
		while(c->cpu_status != CPU_STARTED)
			;
	}
}
  800420045e:	c9                   	leaveq 
  800420045f:	c3                   	retq   

0000008004200460 <mp_main>:

// Setup code for APs
void
mp_main(void)
{
  8004200460:	55                   	push   %rbp
  8004200461:	48 89 e5             	mov    %rsp,%rbp
  8004200464:	48 83 ec 10          	sub    $0x10,%rsp
	// We are in high EIP now, safe to switch to kern_pgdir 
	lcr3(boot_cr3);
  8004200468:	48 b8 a0 17 4a 04 80 	movabs $0x80044a17a0,%rax
  800420046f:	00 00 00 
  8004200472:	48 8b 00             	mov    (%rax),%rax
  8004200475:	48 89 45 f8          	mov    %rax,-0x8(%rbp)
}

static __inline void
lcr3(uint64_t val)
{
	__asm __volatile("movq %0,%%cr3" : : "r" (val));
  8004200479:	48 8b 45 f8          	mov    -0x8(%rbp),%rax
  800420047d:	0f 22 d8             	mov    %rax,%cr3
	cprintf("SMP: CPU %d starting\n", cpunum());
  8004200480:	48 b8 55 67 21 04 80 	movabs $0x8004216755,%rax
  8004200487:	00 00 00 
  800420048a:	ff d0                	callq  *%rax
  800420048c:	89 c6                	mov    %eax,%esi
  800420048e:	48 bf cc 6e 21 04 80 	movabs $0x8004216ecc,%rdi
  8004200495:	00 00 00 
  8004200498:	b8 00 00 00 00       	mov    $0x0,%eax
  800420049d:	48 ba 99 8d 20 04 80 	movabs $0x8004208d99,%rdx
  80042004a4:	00 00 00 
  80042004a7:	ff d2                	callq  *%rdx

	lapic_init();
  80042004a9:	48 b8 5e 65 21 04 80 	movabs $0x800421655e,%rax
  80042004b0:	00 00 00 
  80042004b3:	ff d0                	callq  *%rax
	env_init_percpu();
  80042004b5:	48 b8 c2 7a 20 04 80 	movabs $0x8004207ac2,%rax
  80042004bc:	00 00 00 
  80042004bf:	ff d0                	callq  *%rax
	trap_init_percpu();
  80042004c1:	48 b8 c1 b6 20 04 80 	movabs $0x800420b6c1,%rax
  80042004c8:	00 00 00 
  80042004cb:	ff d0                	callq  *%rax
	xchg(&thiscpu->cpu_status, CPU_STARTED); // tell boot_aps() we're up
  80042004cd:	48 b8 55 67 21 04 80 	movabs $0x8004216755,%rax
  80042004d4:	00 00 00 
  80042004d7:	ff d0                	callq  *%rax
  80042004d9:	48 98                	cltq   
  80042004db:	48 c1 e0 03          	shl    $0x3,%rax
  80042004df:	48 89 c2             	mov    %rax,%rdx
  80042004e2:	48 c1 e2 04          	shl    $0x4,%rdx
  80042004e6:	48 29 c2             	sub    %rax,%rdx
  80042004e9:	48 b8 20 30 4a 04 80 	movabs $0x80044a3020,%rax
  80042004f0:	00 00 00 
  80042004f3:	48 01 d0             	add    %rdx,%rax
  80042004f6:	48 83 c0 04          	add    $0x4,%rax
  80042004fa:	be 01 00 00 00       	mov    $0x1,%esi
  80042004ff:	48 89 c7             	mov    %rax,%rdi
  8004200502:	48 b8 58 00 20 04 80 	movabs $0x8004200058,%rax
  8004200509:	00 00 00 
  800420050c:	ff d0                	callq  *%rax
	// Now that we have finished some basic setup, call sched_yield()
	// to start running processes on this CPU.  But make sure that
	// only one CPU can enter the scheduler at a time!
	//
	// Your code here:
	lock_kernel();
  800420050e:	48 b8 7d 00 20 04 80 	movabs $0x800420007d,%rax
  8004200515:	00 00 00 
  8004200518:	ff d0                	callq  *%rax
	sched_yield();
  800420051a:	48 b8 93 ce 20 04 80 	movabs $0x800420ce93,%rax
  8004200521:	00 00 00 
  8004200524:	ff d0                	callq  *%rax

0000008004200526 <_panic>:
 * Panic is called on unresolvable fatal errors.
 * It prints "panic: mesg", and then enters the kernel monitor.
 */
void
_panic(const char *file, int line, const char *fmt,...)
{
  8004200526:	55                   	push   %rbp
  8004200527:	48 89 e5             	mov    %rsp,%rbp
  800420052a:	48 81 ec f0 00 00 00 	sub    $0xf0,%rsp
  8004200531:	48 89 bd 28 ff ff ff 	mov    %rdi,-0xd8(%rbp)
  8004200538:	89 b5 24 ff ff ff    	mov    %esi,-0xdc(%rbp)
  800420053e:	48 89 8d 68 ff ff ff 	mov    %rcx,-0x98(%rbp)
  8004200545:	4c 89 85 70 ff ff ff 	mov    %r8,-0x90(%rbp)
  800420054c:	4c 89 8d 78 ff ff ff 	mov    %r9,-0x88(%rbp)
  8004200553:	84 c0                	test   %al,%al
  8004200555:	74 20                	je     8004200577 <_panic+0x51>
  8004200557:	0f 29 45 80          	movaps %xmm0,-0x80(%rbp)
  800420055b:	0f 29 4d 90          	movaps %xmm1,-0x70(%rbp)
  800420055f:	0f 29 55 a0          	movaps %xmm2,-0x60(%rbp)
  8004200563:	0f 29 5d b0          	movaps %xmm3,-0x50(%rbp)
  8004200567:	0f 29 65 c0          	movaps %xmm4,-0x40(%rbp)
  800420056b:	0f 29 6d d0          	movaps %xmm5,-0x30(%rbp)
  800420056f:	0f 29 75 e0          	movaps %xmm6,-0x20(%rbp)
  8004200573:	0f 29 7d f0          	movaps %xmm7,-0x10(%rbp)
  8004200577:	48 89 95 18 ff ff ff 	mov    %rdx,-0xe8(%rbp)
	va_list ap;

	if (panicstr)
  800420057e:	48 b8 90 17 4a 04 80 	movabs $0x80044a1790,%rax
  8004200585:	00 00 00 
  8004200588:	48 8b 00             	mov    (%rax),%rax
  800420058b:	48 85 c0             	test   %rax,%rax
  800420058e:	74 05                	je     8004200595 <_panic+0x6f>
		goto dead;
  8004200590:	e9 b5 00 00 00       	jmpq   800420064a <_panic+0x124>
	panicstr = fmt;
  8004200595:	48 b8 90 17 4a 04 80 	movabs $0x80044a1790,%rax
  800420059c:	00 00 00 
  800420059f:	48 8b 95 18 ff ff ff 	mov    -0xe8(%rbp),%rdx
  80042005a6:	48 89 10             	mov    %rdx,(%rax)

	// Be extra sure that the machine is in as reasonable state
	__asm __volatile("cli; cld");
  80042005a9:	fa                   	cli    
  80042005aa:	fc                   	cld    

	va_start(ap, fmt);
  80042005ab:	c7 85 38 ff ff ff 18 	movl   $0x18,-0xc8(%rbp)
  80042005b2:	00 00 00 
  80042005b5:	c7 85 3c ff ff ff 30 	movl   $0x30,-0xc4(%rbp)
  80042005bc:	00 00 00 
  80042005bf:	48 8d 45 10          	lea    0x10(%rbp),%rax
  80042005c3:	48 89 85 40 ff ff ff 	mov    %rax,-0xc0(%rbp)
  80042005ca:	48 8d 85 50 ff ff ff 	lea    -0xb0(%rbp),%rax
  80042005d1:	48 89 85 48 ff ff ff 	mov    %rax,-0xb8(%rbp)
	cprintf("kernel panic on CPU %d at %s:%d: ", cpunum(), file, line);
  80042005d8:	48 b8 55 67 21 04 80 	movabs $0x8004216755,%rax
  80042005df:	00 00 00 
  80042005e2:	ff d0                	callq  *%rax
  80042005e4:	8b 8d 24 ff ff ff    	mov    -0xdc(%rbp),%ecx
  80042005ea:	48 8b 95 28 ff ff ff 	mov    -0xd8(%rbp),%rdx
  80042005f1:	89 c6                	mov    %eax,%esi
  80042005f3:	48 bf e8 6e 21 04 80 	movabs $0x8004216ee8,%rdi
  80042005fa:	00 00 00 
  80042005fd:	b8 00 00 00 00       	mov    $0x0,%eax
  8004200602:	49 b8 99 8d 20 04 80 	movabs $0x8004208d99,%r8
  8004200609:	00 00 00 
  800420060c:	41 ff d0             	callq  *%r8
	vcprintf(fmt, ap);
  800420060f:	48 8d 95 38 ff ff ff 	lea    -0xc8(%rbp),%rdx
  8004200616:	48 8b 85 18 ff ff ff 	mov    -0xe8(%rbp),%rax
  800420061d:	48 89 d6             	mov    %rdx,%rsi
  8004200620:	48 89 c7             	mov    %rax,%rdi
  8004200623:	48 b8 3a 8d 20 04 80 	movabs $0x8004208d3a,%rax
  800420062a:	00 00 00 
  800420062d:	ff d0                	callq  *%rax
	cprintf("\n");
  800420062f:	48 bf 0a 6f 21 04 80 	movabs $0x8004216f0a,%rdi
  8004200636:	00 00 00 
  8004200639:	b8 00 00 00 00       	mov    $0x0,%eax
  800420063e:	48 ba 99 8d 20 04 80 	movabs $0x8004208d99,%rdx
  8004200645:	00 00 00 
  8004200648:	ff d2                	callq  *%rdx
	va_end(ap);

dead:
	/* break into the kernel monitor */
	while (1)
		monitor(NULL);
  800420064a:	bf 00 00 00 00       	mov    $0x0,%edi
  800420064f:	48 b8 31 1b 20 04 80 	movabs $0x8004201b31,%rax
  8004200656:	00 00 00 
  8004200659:	ff d0                	callq  *%rax
  800420065b:	eb ed                	jmp    800420064a <_panic+0x124>

000000800420065d <_warn>:
}

/* like panic, but don't */
void
_warn(const char *file, int line, const char *fmt,...)
{
  800420065d:	55                   	push   %rbp
  800420065e:	48 89 e5             	mov    %rsp,%rbp
  8004200661:	48 81 ec f0 00 00 00 	sub    $0xf0,%rsp
  8004200668:	48 89 bd 28 ff ff ff 	mov    %rdi,-0xd8(%rbp)
  800420066f:	89 b5 24 ff ff ff    	mov    %esi,-0xdc(%rbp)
  8004200675:	48 89 8d 68 ff ff ff 	mov    %rcx,-0x98(%rbp)
  800420067c:	4c 89 85 70 ff ff ff 	mov    %r8,-0x90(%rbp)
  8004200683:	4c 89 8d 78 ff ff ff 	mov    %r9,-0x88(%rbp)
  800420068a:	84 c0                	test   %al,%al
  800420068c:	74 20                	je     80042006ae <_warn+0x51>
  800420068e:	0f 29 45 80          	movaps %xmm0,-0x80(%rbp)
  8004200692:	0f 29 4d 90          	movaps %xmm1,-0x70(%rbp)
  8004200696:	0f 29 55 a0          	movaps %xmm2,-0x60(%rbp)
  800420069a:	0f 29 5d b0          	movaps %xmm3,-0x50(%rbp)
  800420069e:	0f 29 65 c0          	movaps %xmm4,-0x40(%rbp)
  80042006a2:	0f 29 6d d0          	movaps %xmm5,-0x30(%rbp)
  80042006a6:	0f 29 75 e0          	movaps %xmm6,-0x20(%rbp)
  80042006aa:	0f 29 7d f0          	movaps %xmm7,-0x10(%rbp)
  80042006ae:	48 89 95 18 ff ff ff 	mov    %rdx,-0xe8(%rbp)
	va_list ap;

	va_start(ap, fmt);
  80042006b5:	c7 85 38 ff ff ff 18 	movl   $0x18,-0xc8(%rbp)
  80042006bc:	00 00 00 
  80042006bf:	c7 85 3c ff ff ff 30 	movl   $0x30,-0xc4(%rbp)
  80042006c6:	00 00 00 
  80042006c9:	48 8d 45 10          	lea    0x10(%rbp),%rax
  80042006cd:	48 89 85 40 ff ff ff 	mov    %rax,-0xc0(%rbp)
  80042006d4:	48 8d 85 50 ff ff ff 	lea    -0xb0(%rbp),%rax
  80042006db:	48 89 85 48 ff ff ff 	mov    %rax,-0xb8(%rbp)
	cprintf("kernel warning at %s:%d: ", file, line);
  80042006e2:	8b 95 24 ff ff ff    	mov    -0xdc(%rbp),%edx
  80042006e8:	48 8b 85 28 ff ff ff 	mov    -0xd8(%rbp),%rax
  80042006ef:	48 89 c6             	mov    %rax,%rsi
  80042006f2:	48 bf 0c 6f 21 04 80 	movabs $0x8004216f0c,%rdi
  80042006f9:	00 00 00 
  80042006fc:	b8 00 00 00 00       	mov    $0x0,%eax
  8004200701:	48 b9 99 8d 20 04 80 	movabs $0x8004208d99,%rcx
  8004200708:	00 00 00 
  800420070b:	ff d1                	callq  *%rcx
	vcprintf(fmt, ap);
  800420070d:	48 8d 95 38 ff ff ff 	lea    -0xc8(%rbp),%rdx
  8004200714:	48 8b 85 18 ff ff ff 	mov    -0xe8(%rbp),%rax
  800420071b:	48 89 d6             	mov    %rdx,%rsi
  800420071e:	48 89 c7             	mov    %rax,%rdi
  8004200721:	48 b8 3a 8d 20 04 80 	movabs $0x8004208d3a,%rax
  8004200728:	00 00 00 
  800420072b:	ff d0                	callq  *%rax
	cprintf("\n");
  800420072d:	48 bf 0a 6f 21 04 80 	movabs $0x8004216f0a,%rdi
  8004200734:	00 00 00 
  8004200737:	b8 00 00 00 00       	mov    $0x0,%eax
  800420073c:	48 ba 99 8d 20 04 80 	movabs $0x8004208d99,%rdx
  8004200743:	00 00 00 
  8004200746:	ff d2                	callq  *%rdx
	va_end(ap);
}
  8004200748:	c9                   	leaveq 
  8004200749:	c3                   	retq   

000000800420074a <delay>:
static void cons_putc(int c);

// Stupid I/O delay routine necessitated by historical PC design flaws
static void
delay(void)
{
  800420074a:	55                   	push   %rbp
  800420074b:	48 89 e5             	mov    %rsp,%rbp
  800420074e:	48 83 ec 20          	sub    $0x20,%rsp
  8004200752:	c7 45 fc 84 00 00 00 	movl   $0x84,-0x4(%rbp)

static __inline uint8_t
inb(int port)
{
	uint8_t data;
	__asm __volatile("inb %w1,%0" : "=a" (data) : "d" (port));
  8004200759:	8b 45 fc             	mov    -0x4(%rbp),%eax
  800420075c:	89 c2                	mov    %eax,%edx
  800420075e:	ec                   	in     (%dx),%al
  800420075f:	88 45 fb             	mov    %al,-0x5(%rbp)
  8004200762:	c7 45 f4 84 00 00 00 	movl   $0x84,-0xc(%rbp)
  8004200769:	8b 45 f4             	mov    -0xc(%rbp),%eax
  800420076c:	89 c2                	mov    %eax,%edx
  800420076e:	ec                   	in     (%dx),%al
  800420076f:	88 45 f3             	mov    %al,-0xd(%rbp)
  8004200772:	c7 45 ec 84 00 00 00 	movl   $0x84,-0x14(%rbp)
  8004200779:	8b 45 ec             	mov    -0x14(%rbp),%eax
  800420077c:	89 c2                	mov    %eax,%edx
  800420077e:	ec                   	in     (%dx),%al
  800420077f:	88 45 eb             	mov    %al,-0x15(%rbp)
  8004200782:	c7 45 e4 84 00 00 00 	movl   $0x84,-0x1c(%rbp)
  8004200789:	8b 45 e4             	mov    -0x1c(%rbp),%eax
  800420078c:	89 c2                	mov    %eax,%edx
  800420078e:	ec                   	in     (%dx),%al
  800420078f:	88 45 e3             	mov    %al,-0x1d(%rbp)
	inb(0x84);
	inb(0x84);
	inb(0x84);
	inb(0x84);
}
  8004200792:	c9                   	leaveq 
  8004200793:	c3                   	retq   

0000008004200794 <serial_proc_data>:

static bool serial_exists;

static int
serial_proc_data(void)
{
  8004200794:	55                   	push   %rbp
  8004200795:	48 89 e5             	mov    %rsp,%rbp
  8004200798:	48 83 ec 10          	sub    $0x10,%rsp
  800420079c:	c7 45 fc fd 03 00 00 	movl   $0x3fd,-0x4(%rbp)
  80042007a3:	8b 45 fc             	mov    -0x4(%rbp),%eax
  80042007a6:	89 c2                	mov    %eax,%edx
  80042007a8:	ec                   	in     (%dx),%al
  80042007a9:	88 45 fb             	mov    %al,-0x5(%rbp)
	return data;
  80042007ac:	0f b6 45 fb          	movzbl -0x5(%rbp),%eax
	if (!(inb(COM1+COM_LSR) & COM_LSR_DATA))
  80042007b0:	0f b6 c0             	movzbl %al,%eax
  80042007b3:	83 e0 01             	and    $0x1,%eax
  80042007b6:	85 c0                	test   %eax,%eax
  80042007b8:	75 07                	jne    80042007c1 <serial_proc_data+0x2d>
		return -1;
  80042007ba:	b8 ff ff ff ff       	mov    $0xffffffff,%eax
  80042007bf:	eb 17                	jmp    80042007d8 <serial_proc_data+0x44>
  80042007c1:	c7 45 f4 f8 03 00 00 	movl   $0x3f8,-0xc(%rbp)

static __inline uint8_t
inb(int port)
{
	uint8_t data;
	__asm __volatile("inb %w1,%0" : "=a" (data) : "d" (port));
  80042007c8:	8b 45 f4             	mov    -0xc(%rbp),%eax
  80042007cb:	89 c2                	mov    %eax,%edx
  80042007cd:	ec                   	in     (%dx),%al
  80042007ce:	88 45 f3             	mov    %al,-0xd(%rbp)
	return data;
  80042007d1:	0f b6 45 f3          	movzbl -0xd(%rbp),%eax
	return inb(COM1+COM_RX);
  80042007d5:	0f b6 c0             	movzbl %al,%eax
}
  80042007d8:	c9                   	leaveq 
  80042007d9:	c3                   	retq   

00000080042007da <serial_intr>:

void
serial_intr(void)
{
  80042007da:	55                   	push   %rbp
  80042007db:	48 89 e5             	mov    %rsp,%rbp
	if (serial_exists)
  80042007de:	48 b8 00 00 4a 04 80 	movabs $0x80044a0000,%rax
  80042007e5:	00 00 00 
  80042007e8:	0f b6 00             	movzbl (%rax),%eax
  80042007eb:	84 c0                	test   %al,%al
  80042007ed:	74 16                	je     8004200805 <serial_intr+0x2b>
		cons_intr(serial_proc_data);
  80042007ef:	48 bf 94 07 20 04 80 	movabs $0x8004200794,%rdi
  80042007f6:	00 00 00 
  80042007f9:	48 b8 7a 10 20 04 80 	movabs $0x800420107a,%rax
  8004200800:	00 00 00 
  8004200803:	ff d0                	callq  *%rax
}
  8004200805:	5d                   	pop    %rbp
  8004200806:	c3                   	retq   

0000008004200807 <serial_putc>:

static void
serial_putc(int c)
{
  8004200807:	55                   	push   %rbp
  8004200808:	48 89 e5             	mov    %rsp,%rbp
  800420080b:	48 83 ec 28          	sub    $0x28,%rsp
  800420080f:	89 7d dc             	mov    %edi,-0x24(%rbp)
	int i;

	for (i = 0;
  8004200812:	c7 45 fc 00 00 00 00 	movl   $0x0,-0x4(%rbp)
  8004200819:	eb 10                	jmp    800420082b <serial_putc+0x24>
	     !(inb(COM1 + COM_LSR) & COM_LSR_TXRDY) && i < 12800;
	     i++)
		delay();
  800420081b:	48 b8 4a 07 20 04 80 	movabs $0x800420074a,%rax
  8004200822:	00 00 00 
  8004200825:	ff d0                	callq  *%rax
{
	int i;

	for (i = 0;
	     !(inb(COM1 + COM_LSR) & COM_LSR_TXRDY) && i < 12800;
	     i++)
  8004200827:	83 45 fc 01          	addl   $0x1,-0x4(%rbp)
  800420082b:	c7 45 f8 fd 03 00 00 	movl   $0x3fd,-0x8(%rbp)

static __inline uint8_t
inb(int port)
{
	uint8_t data;
	__asm __volatile("inb %w1,%0" : "=a" (data) : "d" (port));
  8004200832:	8b 45 f8             	mov    -0x8(%rbp),%eax
  8004200835:	89 c2                	mov    %eax,%edx
  8004200837:	ec                   	in     (%dx),%al
  8004200838:	88 45 f7             	mov    %al,-0x9(%rbp)
	return data;
  800420083b:	0f b6 45 f7          	movzbl -0x9(%rbp),%eax
serial_putc(int c)
{
	int i;

	for (i = 0;
	     !(inb(COM1 + COM_LSR) & COM_LSR_TXRDY) && i < 12800;
  800420083f:	0f b6 c0             	movzbl %al,%eax
  8004200842:	83 e0 20             	and    $0x20,%eax
static void
serial_putc(int c)
{
	int i;

	for (i = 0;
  8004200845:	85 c0                	test   %eax,%eax
  8004200847:	75 09                	jne    8004200852 <serial_putc+0x4b>
	     !(inb(COM1 + COM_LSR) & COM_LSR_TXRDY) && i < 12800;
  8004200849:	81 7d fc ff 31 00 00 	cmpl   $0x31ff,-0x4(%rbp)
  8004200850:	7e c9                	jle    800420081b <serial_putc+0x14>
	     i++)
		delay();

	outb(COM1 + COM_TX, c);
  8004200852:	8b 45 dc             	mov    -0x24(%rbp),%eax
  8004200855:	0f b6 c0             	movzbl %al,%eax
  8004200858:	c7 45 f0 f8 03 00 00 	movl   $0x3f8,-0x10(%rbp)
  800420085f:	88 45 ef             	mov    %al,-0x11(%rbp)
}

static __inline void
outb(int port, uint8_t data)
{
	__asm __volatile("outb %0,%w1" : : "a" (data), "d" (port));
  8004200862:	0f b6 45 ef          	movzbl -0x11(%rbp),%eax
  8004200866:	8b 55 f0             	mov    -0x10(%rbp),%edx
  8004200869:	ee                   	out    %al,(%dx)
}
  800420086a:	c9                   	leaveq 
  800420086b:	c3                   	retq   

000000800420086c <serial_init>:

static void
serial_init(void)
{
  800420086c:	55                   	push   %rbp
  800420086d:	48 89 e5             	mov    %rsp,%rbp
  8004200870:	48 83 ec 50          	sub    $0x50,%rsp
  8004200874:	c7 45 fc fa 03 00 00 	movl   $0x3fa,-0x4(%rbp)
  800420087b:	c6 45 fb 00          	movb   $0x0,-0x5(%rbp)
  800420087f:	0f b6 45 fb          	movzbl -0x5(%rbp),%eax
  8004200883:	8b 55 fc             	mov    -0x4(%rbp),%edx
  8004200886:	ee                   	out    %al,(%dx)
  8004200887:	c7 45 f4 fb 03 00 00 	movl   $0x3fb,-0xc(%rbp)
  800420088e:	c6 45 f3 80          	movb   $0x80,-0xd(%rbp)
  8004200892:	0f b6 45 f3          	movzbl -0xd(%rbp),%eax
  8004200896:	8b 55 f4             	mov    -0xc(%rbp),%edx
  8004200899:	ee                   	out    %al,(%dx)
  800420089a:	c7 45 ec f8 03 00 00 	movl   $0x3f8,-0x14(%rbp)
  80042008a1:	c6 45 eb 0c          	movb   $0xc,-0x15(%rbp)
  80042008a5:	0f b6 45 eb          	movzbl -0x15(%rbp),%eax
  80042008a9:	8b 55 ec             	mov    -0x14(%rbp),%edx
  80042008ac:	ee                   	out    %al,(%dx)
  80042008ad:	c7 45 e4 f9 03 00 00 	movl   $0x3f9,-0x1c(%rbp)
  80042008b4:	c6 45 e3 00          	movb   $0x0,-0x1d(%rbp)
  80042008b8:	0f b6 45 e3          	movzbl -0x1d(%rbp),%eax
  80042008bc:	8b 55 e4             	mov    -0x1c(%rbp),%edx
  80042008bf:	ee                   	out    %al,(%dx)
  80042008c0:	c7 45 dc fb 03 00 00 	movl   $0x3fb,-0x24(%rbp)
  80042008c7:	c6 45 db 03          	movb   $0x3,-0x25(%rbp)
  80042008cb:	0f b6 45 db          	movzbl -0x25(%rbp),%eax
  80042008cf:	8b 55 dc             	mov    -0x24(%rbp),%edx
  80042008d2:	ee                   	out    %al,(%dx)
  80042008d3:	c7 45 d4 fc 03 00 00 	movl   $0x3fc,-0x2c(%rbp)
  80042008da:	c6 45 d3 00          	movb   $0x0,-0x2d(%rbp)
  80042008de:	0f b6 45 d3          	movzbl -0x2d(%rbp),%eax
  80042008e2:	8b 55 d4             	mov    -0x2c(%rbp),%edx
  80042008e5:	ee                   	out    %al,(%dx)
  80042008e6:	c7 45 cc f9 03 00 00 	movl   $0x3f9,-0x34(%rbp)
  80042008ed:	c6 45 cb 01          	movb   $0x1,-0x35(%rbp)
  80042008f1:	0f b6 45 cb          	movzbl -0x35(%rbp),%eax
  80042008f5:	8b 55 cc             	mov    -0x34(%rbp),%edx
  80042008f8:	ee                   	out    %al,(%dx)
  80042008f9:	c7 45 c4 fd 03 00 00 	movl   $0x3fd,-0x3c(%rbp)

static __inline uint8_t
inb(int port)
{
	uint8_t data;
	__asm __volatile("inb %w1,%0" : "=a" (data) : "d" (port));
  8004200900:	8b 45 c4             	mov    -0x3c(%rbp),%eax
  8004200903:	89 c2                	mov    %eax,%edx
  8004200905:	ec                   	in     (%dx),%al
  8004200906:	88 45 c3             	mov    %al,-0x3d(%rbp)
	return data;
  8004200909:	0f b6 45 c3          	movzbl -0x3d(%rbp),%eax
	// Enable rcv interrupts
	outb(COM1+COM_IER, COM_IER_RDI);

	// Clear any preexisting overrun indications and interrupts
	// Serial port doesn't exist if COM_LSR returns 0xFF
	serial_exists = (inb(COM1+COM_LSR) != 0xFF);
  800420090d:	3c ff                	cmp    $0xff,%al
  800420090f:	0f 95 c2             	setne  %dl
  8004200912:	48 b8 00 00 4a 04 80 	movabs $0x80044a0000,%rax
  8004200919:	00 00 00 
  800420091c:	88 10                	mov    %dl,(%rax)
  800420091e:	c7 45 bc fa 03 00 00 	movl   $0x3fa,-0x44(%rbp)

static __inline uint8_t
inb(int port)
{
	uint8_t data;
	__asm __volatile("inb %w1,%0" : "=a" (data) : "d" (port));
  8004200925:	8b 45 bc             	mov    -0x44(%rbp),%eax
  8004200928:	89 c2                	mov    %eax,%edx
  800420092a:	ec                   	in     (%dx),%al
  800420092b:	88 45 bb             	mov    %al,-0x45(%rbp)
  800420092e:	c7 45 b4 f8 03 00 00 	movl   $0x3f8,-0x4c(%rbp)
  8004200935:	8b 45 b4             	mov    -0x4c(%rbp),%eax
  8004200938:	89 c2                	mov    %eax,%edx
  800420093a:	ec                   	in     (%dx),%al
  800420093b:	88 45 b3             	mov    %al,-0x4d(%rbp)
	(void) inb(COM1+COM_IIR);
	(void) inb(COM1+COM_RX);

	// Enable serial interrupts
	if (serial_exists)
  800420093e:	48 b8 00 00 4a 04 80 	movabs $0x80044a0000,%rax
  8004200945:	00 00 00 
  8004200948:	0f b6 00             	movzbl (%rax),%eax
  800420094b:	84 c0                	test   %al,%al
  800420094d:	74 23                	je     8004200972 <serial_init+0x106>
		irq_setmask_8259A(irq_mask_8259A & ~(1<<4));
  800420094f:	48 b8 92 c6 22 04 80 	movabs $0x800422c692,%rax
  8004200956:	00 00 00 
  8004200959:	0f b7 00             	movzwl (%rax),%eax
  800420095c:	0f b7 c0             	movzwl %ax,%eax
  800420095f:	25 ef ff 00 00       	and    $0xffef,%eax
  8004200964:	89 c7                	mov    %eax,%edi
  8004200966:	48 b8 1b 8c 20 04 80 	movabs $0x8004208c1b,%rax
  800420096d:	00 00 00 
  8004200970:	ff d0                	callq  *%rax
}
  8004200972:	c9                   	leaveq 
  8004200973:	c3                   	retq   

0000008004200974 <lpt_putc>:
// For information on PC parallel port programming, see the class References
// page.

static void
lpt_putc(int c)
{
  8004200974:	55                   	push   %rbp
  8004200975:	48 89 e5             	mov    %rsp,%rbp
  8004200978:	48 83 ec 38          	sub    $0x38,%rsp
  800420097c:	89 7d cc             	mov    %edi,-0x34(%rbp)
	int i;

	for (i = 0; !(inb(0x378+1) & 0x80) && i < 12800; i++)
  800420097f:	c7 45 fc 00 00 00 00 	movl   $0x0,-0x4(%rbp)
  8004200986:	eb 10                	jmp    8004200998 <lpt_putc+0x24>
		delay();
  8004200988:	48 b8 4a 07 20 04 80 	movabs $0x800420074a,%rax
  800420098f:	00 00 00 
  8004200992:	ff d0                	callq  *%rax
static void
lpt_putc(int c)
{
	int i;

	for (i = 0; !(inb(0x378+1) & 0x80) && i < 12800; i++)
  8004200994:	83 45 fc 01          	addl   $0x1,-0x4(%rbp)
  8004200998:	c7 45 f8 79 03 00 00 	movl   $0x379,-0x8(%rbp)
  800420099f:	8b 45 f8             	mov    -0x8(%rbp),%eax
  80042009a2:	89 c2                	mov    %eax,%edx
  80042009a4:	ec                   	in     (%dx),%al
  80042009a5:	88 45 f7             	mov    %al,-0x9(%rbp)
	return data;
  80042009a8:	0f b6 45 f7          	movzbl -0x9(%rbp),%eax
  80042009ac:	84 c0                	test   %al,%al
  80042009ae:	78 09                	js     80042009b9 <lpt_putc+0x45>
  80042009b0:	81 7d fc ff 31 00 00 	cmpl   $0x31ff,-0x4(%rbp)
  80042009b7:	7e cf                	jle    8004200988 <lpt_putc+0x14>
		delay();
	outb(0x378+0, c);
  80042009b9:	8b 45 cc             	mov    -0x34(%rbp),%eax
  80042009bc:	0f b6 c0             	movzbl %al,%eax
  80042009bf:	c7 45 f0 78 03 00 00 	movl   $0x378,-0x10(%rbp)
  80042009c6:	88 45 ef             	mov    %al,-0x11(%rbp)
}

static __inline void
outb(int port, uint8_t data)
{
	__asm __volatile("outb %0,%w1" : : "a" (data), "d" (port));
  80042009c9:	0f b6 45 ef          	movzbl -0x11(%rbp),%eax
  80042009cd:	8b 55 f0             	mov    -0x10(%rbp),%edx
  80042009d0:	ee                   	out    %al,(%dx)
  80042009d1:	c7 45 e8 7a 03 00 00 	movl   $0x37a,-0x18(%rbp)
  80042009d8:	c6 45 e7 0d          	movb   $0xd,-0x19(%rbp)
  80042009dc:	0f b6 45 e7          	movzbl -0x19(%rbp),%eax
  80042009e0:	8b 55 e8             	mov    -0x18(%rbp),%edx
  80042009e3:	ee                   	out    %al,(%dx)
  80042009e4:	c7 45 e0 7a 03 00 00 	movl   $0x37a,-0x20(%rbp)
  80042009eb:	c6 45 df 08          	movb   $0x8,-0x21(%rbp)
  80042009ef:	0f b6 45 df          	movzbl -0x21(%rbp),%eax
  80042009f3:	8b 55 e0             	mov    -0x20(%rbp),%edx
  80042009f6:	ee                   	out    %al,(%dx)
	outb(0x378+2, 0x08|0x04|0x01);
	outb(0x378+2, 0x08);
}
  80042009f7:	c9                   	leaveq 
  80042009f8:	c3                   	retq   

00000080042009f9 <cga_init>:
static uint16_t *crt_buf;
static uint16_t crt_pos;

static void
cga_init(void)
{
  80042009f9:	55                   	push   %rbp
  80042009fa:	48 89 e5             	mov    %rsp,%rbp
  80042009fd:	48 83 ec 30          	sub    $0x30,%rsp
	volatile uint16_t *cp;
	uint16_t was;
	unsigned pos;

	cp = (uint16_t*) (KERNBASE + CGA_BUF);
  8004200a01:	48 b8 00 80 0b 04 80 	movabs $0x80040b8000,%rax
  8004200a08:	00 00 00 
  8004200a0b:	48 89 45 f8          	mov    %rax,-0x8(%rbp)
	was = *cp;
  8004200a0f:	48 8b 45 f8          	mov    -0x8(%rbp),%rax
  8004200a13:	0f b7 00             	movzwl (%rax),%eax
  8004200a16:	66 89 45 f6          	mov    %ax,-0xa(%rbp)
	*cp = (uint16_t) 0xA55A;
  8004200a1a:	48 8b 45 f8          	mov    -0x8(%rbp),%rax
  8004200a1e:	66 c7 00 5a a5       	movw   $0xa55a,(%rax)
	if (*cp != 0xA55A) {
  8004200a23:	48 8b 45 f8          	mov    -0x8(%rbp),%rax
  8004200a27:	0f b7 00             	movzwl (%rax),%eax
  8004200a2a:	66 3d 5a a5          	cmp    $0xa55a,%ax
  8004200a2e:	74 20                	je     8004200a50 <cga_init+0x57>
		cp = (uint16_t*) (KERNBASE + MONO_BUF);
  8004200a30:	48 b8 00 00 0b 04 80 	movabs $0x80040b0000,%rax
  8004200a37:	00 00 00 
  8004200a3a:	48 89 45 f8          	mov    %rax,-0x8(%rbp)
		addr_6845 = MONO_BASE;
  8004200a3e:	48 b8 04 00 4a 04 80 	movabs $0x80044a0004,%rax
  8004200a45:	00 00 00 
  8004200a48:	c7 00 b4 03 00 00    	movl   $0x3b4,(%rax)
  8004200a4e:	eb 1b                	jmp    8004200a6b <cga_init+0x72>
	} else {
		*cp = was;
  8004200a50:	48 8b 45 f8          	mov    -0x8(%rbp),%rax
  8004200a54:	0f b7 55 f6          	movzwl -0xa(%rbp),%edx
  8004200a58:	66 89 10             	mov    %dx,(%rax)
		addr_6845 = CGA_BASE;
  8004200a5b:	48 b8 04 00 4a 04 80 	movabs $0x80044a0004,%rax
  8004200a62:	00 00 00 
  8004200a65:	c7 00 d4 03 00 00    	movl   $0x3d4,(%rax)
	}

	/* Extract cursor location */
	outb(addr_6845, 14);
  8004200a6b:	48 b8 04 00 4a 04 80 	movabs $0x80044a0004,%rax
  8004200a72:	00 00 00 
  8004200a75:	8b 00                	mov    (%rax),%eax
  8004200a77:	89 45 ec             	mov    %eax,-0x14(%rbp)
  8004200a7a:	c6 45 eb 0e          	movb   $0xe,-0x15(%rbp)
  8004200a7e:	0f b6 45 eb          	movzbl -0x15(%rbp),%eax
  8004200a82:	8b 55 ec             	mov    -0x14(%rbp),%edx
  8004200a85:	ee                   	out    %al,(%dx)
	pos = inb(addr_6845 + 1) << 8;
  8004200a86:	48 b8 04 00 4a 04 80 	movabs $0x80044a0004,%rax
  8004200a8d:	00 00 00 
  8004200a90:	8b 00                	mov    (%rax),%eax
  8004200a92:	83 c0 01             	add    $0x1,%eax
  8004200a95:	89 45 e4             	mov    %eax,-0x1c(%rbp)

static __inline uint8_t
inb(int port)
{
	uint8_t data;
	__asm __volatile("inb %w1,%0" : "=a" (data) : "d" (port));
  8004200a98:	8b 45 e4             	mov    -0x1c(%rbp),%eax
  8004200a9b:	89 c2                	mov    %eax,%edx
  8004200a9d:	ec                   	in     (%dx),%al
  8004200a9e:	88 45 e3             	mov    %al,-0x1d(%rbp)
	return data;
  8004200aa1:	0f b6 45 e3          	movzbl -0x1d(%rbp),%eax
  8004200aa5:	0f b6 c0             	movzbl %al,%eax
  8004200aa8:	c1 e0 08             	shl    $0x8,%eax
  8004200aab:	89 45 f0             	mov    %eax,-0x10(%rbp)
	outb(addr_6845, 15);
  8004200aae:	48 b8 04 00 4a 04 80 	movabs $0x80044a0004,%rax
  8004200ab5:	00 00 00 
  8004200ab8:	8b 00                	mov    (%rax),%eax
  8004200aba:	89 45 dc             	mov    %eax,-0x24(%rbp)
  8004200abd:	c6 45 db 0f          	movb   $0xf,-0x25(%rbp)
}

static __inline void
outb(int port, uint8_t data)
{
	__asm __volatile("outb %0,%w1" : : "a" (data), "d" (port));
  8004200ac1:	0f b6 45 db          	movzbl -0x25(%rbp),%eax
  8004200ac5:	8b 55 dc             	mov    -0x24(%rbp),%edx
  8004200ac8:	ee                   	out    %al,(%dx)
	pos |= inb(addr_6845 + 1);
  8004200ac9:	48 b8 04 00 4a 04 80 	movabs $0x80044a0004,%rax
  8004200ad0:	00 00 00 
  8004200ad3:	8b 00                	mov    (%rax),%eax
  8004200ad5:	83 c0 01             	add    $0x1,%eax
  8004200ad8:	89 45 d4             	mov    %eax,-0x2c(%rbp)

static __inline uint8_t
inb(int port)
{
	uint8_t data;
	__asm __volatile("inb %w1,%0" : "=a" (data) : "d" (port));
  8004200adb:	8b 45 d4             	mov    -0x2c(%rbp),%eax
  8004200ade:	89 c2                	mov    %eax,%edx
  8004200ae0:	ec                   	in     (%dx),%al
  8004200ae1:	88 45 d3             	mov    %al,-0x2d(%rbp)
	return data;
  8004200ae4:	0f b6 45 d3          	movzbl -0x2d(%rbp),%eax
  8004200ae8:	0f b6 c0             	movzbl %al,%eax
  8004200aeb:	09 45 f0             	or     %eax,-0x10(%rbp)

	crt_buf = (uint16_t*) cp;
  8004200aee:	48 b8 08 00 4a 04 80 	movabs $0x80044a0008,%rax
  8004200af5:	00 00 00 
  8004200af8:	48 8b 55 f8          	mov    -0x8(%rbp),%rdx
  8004200afc:	48 89 10             	mov    %rdx,(%rax)
	crt_pos = pos;
  8004200aff:	8b 45 f0             	mov    -0x10(%rbp),%eax
  8004200b02:	89 c2                	mov    %eax,%edx
  8004200b04:	48 b8 10 00 4a 04 80 	movabs $0x80044a0010,%rax
  8004200b0b:	00 00 00 
  8004200b0e:	66 89 10             	mov    %dx,(%rax)
}
  8004200b11:	c9                   	leaveq 
  8004200b12:	c3                   	retq   

0000008004200b13 <cga_putc>:



static void
cga_putc(int c)
{
  8004200b13:	55                   	push   %rbp
  8004200b14:	48 89 e5             	mov    %rsp,%rbp
  8004200b17:	48 83 ec 40          	sub    $0x40,%rsp
  8004200b1b:	89 7d cc             	mov    %edi,-0x34(%rbp)
	// if no attribute given, then use black on white
	if (!(c & ~0xFF))
  8004200b1e:	8b 45 cc             	mov    -0x34(%rbp),%eax
  8004200b21:	b0 00                	mov    $0x0,%al
  8004200b23:	85 c0                	test   %eax,%eax
  8004200b25:	75 07                	jne    8004200b2e <cga_putc+0x1b>
		c |= 0x0700;
  8004200b27:	81 4d cc 00 07 00 00 	orl    $0x700,-0x34(%rbp)

	switch (c & 0xff) {
  8004200b2e:	8b 45 cc             	mov    -0x34(%rbp),%eax
  8004200b31:	0f b6 c0             	movzbl %al,%eax
  8004200b34:	83 f8 09             	cmp    $0x9,%eax
  8004200b37:	0f 84 f6 00 00 00    	je     8004200c33 <cga_putc+0x120>
  8004200b3d:	83 f8 09             	cmp    $0x9,%eax
  8004200b40:	7f 0a                	jg     8004200b4c <cga_putc+0x39>
  8004200b42:	83 f8 08             	cmp    $0x8,%eax
  8004200b45:	74 18                	je     8004200b5f <cga_putc+0x4c>
  8004200b47:	e9 3e 01 00 00       	jmpq   8004200c8a <cga_putc+0x177>
  8004200b4c:	83 f8 0a             	cmp    $0xa,%eax
  8004200b4f:	74 75                	je     8004200bc6 <cga_putc+0xb3>
  8004200b51:	83 f8 0d             	cmp    $0xd,%eax
  8004200b54:	0f 84 89 00 00 00    	je     8004200be3 <cga_putc+0xd0>
  8004200b5a:	e9 2b 01 00 00       	jmpq   8004200c8a <cga_putc+0x177>
	case '\b':
		if (crt_pos > 0) {
  8004200b5f:	48 b8 10 00 4a 04 80 	movabs $0x80044a0010,%rax
  8004200b66:	00 00 00 
  8004200b69:	0f b7 00             	movzwl (%rax),%eax
  8004200b6c:	66 85 c0             	test   %ax,%ax
  8004200b6f:	74 50                	je     8004200bc1 <cga_putc+0xae>
			crt_pos--;
  8004200b71:	48 b8 10 00 4a 04 80 	movabs $0x80044a0010,%rax
  8004200b78:	00 00 00 
  8004200b7b:	0f b7 00             	movzwl (%rax),%eax
  8004200b7e:	8d 50 ff             	lea    -0x1(%rax),%edx
  8004200b81:	48 b8 10 00 4a 04 80 	movabs $0x80044a0010,%rax
  8004200b88:	00 00 00 
  8004200b8b:	66 89 10             	mov    %dx,(%rax)
			crt_buf[crt_pos] = (c & ~0xff) | ' ';
  8004200b8e:	48 b8 08 00 4a 04 80 	movabs $0x80044a0008,%rax
  8004200b95:	00 00 00 
  8004200b98:	48 8b 10             	mov    (%rax),%rdx
  8004200b9b:	48 b8 10 00 4a 04 80 	movabs $0x80044a0010,%rax
  8004200ba2:	00 00 00 
  8004200ba5:	0f b7 00             	movzwl (%rax),%eax
  8004200ba8:	0f b7 c0             	movzwl %ax,%eax
  8004200bab:	48 01 c0             	add    %rax,%rax
  8004200bae:	48 01 c2             	add    %rax,%rdx
  8004200bb1:	8b 45 cc             	mov    -0x34(%rbp),%eax
  8004200bb4:	b0 00                	mov    $0x0,%al
  8004200bb6:	83 c8 20             	or     $0x20,%eax
  8004200bb9:	66 89 02             	mov    %ax,(%rdx)
		}
		break;
  8004200bbc:	e9 04 01 00 00       	jmpq   8004200cc5 <cga_putc+0x1b2>
  8004200bc1:	e9 ff 00 00 00       	jmpq   8004200cc5 <cga_putc+0x1b2>
	case '\n':
		crt_pos += CRT_COLS;
  8004200bc6:	48 b8 10 00 4a 04 80 	movabs $0x80044a0010,%rax
  8004200bcd:	00 00 00 
  8004200bd0:	0f b7 00             	movzwl (%rax),%eax
  8004200bd3:	8d 50 50             	lea    0x50(%rax),%edx
  8004200bd6:	48 b8 10 00 4a 04 80 	movabs $0x80044a0010,%rax
  8004200bdd:	00 00 00 
  8004200be0:	66 89 10             	mov    %dx,(%rax)
		/* fallthru */
	case '\r':
		crt_pos -= (crt_pos % CRT_COLS);
  8004200be3:	48 b8 10 00 4a 04 80 	movabs $0x80044a0010,%rax
  8004200bea:	00 00 00 
  8004200bed:	0f b7 30             	movzwl (%rax),%esi
  8004200bf0:	48 b8 10 00 4a 04 80 	movabs $0x80044a0010,%rax
  8004200bf7:	00 00 00 
  8004200bfa:	0f b7 08             	movzwl (%rax),%ecx
  8004200bfd:	0f b7 c1             	movzwl %cx,%eax
  8004200c00:	69 c0 cd cc 00 00    	imul   $0xcccd,%eax,%eax
  8004200c06:	c1 e8 10             	shr    $0x10,%eax
  8004200c09:	89 c2                	mov    %eax,%edx
  8004200c0b:	66 c1 ea 06          	shr    $0x6,%dx
  8004200c0f:	89 d0                	mov    %edx,%eax
  8004200c11:	c1 e0 02             	shl    $0x2,%eax
  8004200c14:	01 d0                	add    %edx,%eax
  8004200c16:	c1 e0 04             	shl    $0x4,%eax
  8004200c19:	29 c1                	sub    %eax,%ecx
  8004200c1b:	89 ca                	mov    %ecx,%edx
  8004200c1d:	29 d6                	sub    %edx,%esi
  8004200c1f:	89 f2                	mov    %esi,%edx
  8004200c21:	48 b8 10 00 4a 04 80 	movabs $0x80044a0010,%rax
  8004200c28:	00 00 00 
  8004200c2b:	66 89 10             	mov    %dx,(%rax)
		break;
  8004200c2e:	e9 92 00 00 00       	jmpq   8004200cc5 <cga_putc+0x1b2>
	case '\t':
		cons_putc(' ');
  8004200c33:	bf 20 00 00 00       	mov    $0x20,%edi
  8004200c38:	48 b8 b7 11 20 04 80 	movabs $0x80042011b7,%rax
  8004200c3f:	00 00 00 
  8004200c42:	ff d0                	callq  *%rax
		cons_putc(' ');
  8004200c44:	bf 20 00 00 00       	mov    $0x20,%edi
  8004200c49:	48 b8 b7 11 20 04 80 	movabs $0x80042011b7,%rax
  8004200c50:	00 00 00 
  8004200c53:	ff d0                	callq  *%rax
		cons_putc(' ');
  8004200c55:	bf 20 00 00 00       	mov    $0x20,%edi
  8004200c5a:	48 b8 b7 11 20 04 80 	movabs $0x80042011b7,%rax
  8004200c61:	00 00 00 
  8004200c64:	ff d0                	callq  *%rax
		cons_putc(' ');
  8004200c66:	bf 20 00 00 00       	mov    $0x20,%edi
  8004200c6b:	48 b8 b7 11 20 04 80 	movabs $0x80042011b7,%rax
  8004200c72:	00 00 00 
  8004200c75:	ff d0                	callq  *%rax
		cons_putc(' ');
  8004200c77:	bf 20 00 00 00       	mov    $0x20,%edi
  8004200c7c:	48 b8 b7 11 20 04 80 	movabs $0x80042011b7,%rax
  8004200c83:	00 00 00 
  8004200c86:	ff d0                	callq  *%rax
		break;
  8004200c88:	eb 3b                	jmp    8004200cc5 <cga_putc+0x1b2>
	default:
		crt_buf[crt_pos++] = c;		/* write the character */
  8004200c8a:	48 b8 08 00 4a 04 80 	movabs $0x80044a0008,%rax
  8004200c91:	00 00 00 
  8004200c94:	48 8b 30             	mov    (%rax),%rsi
  8004200c97:	48 b8 10 00 4a 04 80 	movabs $0x80044a0010,%rax
  8004200c9e:	00 00 00 
  8004200ca1:	0f b7 00             	movzwl (%rax),%eax
  8004200ca4:	8d 48 01             	lea    0x1(%rax),%ecx
  8004200ca7:	48 ba 10 00 4a 04 80 	movabs $0x80044a0010,%rdx
  8004200cae:	00 00 00 
  8004200cb1:	66 89 0a             	mov    %cx,(%rdx)
  8004200cb4:	0f b7 c0             	movzwl %ax,%eax
  8004200cb7:	48 01 c0             	add    %rax,%rax
  8004200cba:	48 8d 14 06          	lea    (%rsi,%rax,1),%rdx
  8004200cbe:	8b 45 cc             	mov    -0x34(%rbp),%eax
  8004200cc1:	66 89 02             	mov    %ax,(%rdx)
		break;
  8004200cc4:	90                   	nop
	}

	// What is the purpose of this?
	if (crt_pos >= CRT_SIZE) {
  8004200cc5:	48 b8 10 00 4a 04 80 	movabs $0x80044a0010,%rax
  8004200ccc:	00 00 00 
  8004200ccf:	0f b7 00             	movzwl (%rax),%eax
  8004200cd2:	66 3d cf 07          	cmp    $0x7cf,%ax
  8004200cd6:	0f 86 89 00 00 00    	jbe    8004200d65 <cga_putc+0x252>
		int i;

		memmove(crt_buf, crt_buf + CRT_COLS, (CRT_SIZE - CRT_COLS) * sizeof(uint16_t));
  8004200cdc:	48 b8 08 00 4a 04 80 	movabs $0x80044a0008,%rax
  8004200ce3:	00 00 00 
  8004200ce6:	48 8b 00             	mov    (%rax),%rax
  8004200ce9:	48 8d 88 a0 00 00 00 	lea    0xa0(%rax),%rcx
  8004200cf0:	48 b8 08 00 4a 04 80 	movabs $0x80044a0008,%rax
  8004200cf7:	00 00 00 
  8004200cfa:	48 8b 00             	mov    (%rax),%rax
  8004200cfd:	ba 00 0f 00 00       	mov    $0xf00,%edx
  8004200d02:	48 89 ce             	mov    %rcx,%rsi
  8004200d05:	48 89 c7             	mov    %rax,%rdi
  8004200d08:	48 b8 31 f9 20 04 80 	movabs $0x800420f931,%rax
  8004200d0f:	00 00 00 
  8004200d12:	ff d0                	callq  *%rax
		for (i = CRT_SIZE - CRT_COLS; i < CRT_SIZE; i++)
  8004200d14:	c7 45 fc 80 07 00 00 	movl   $0x780,-0x4(%rbp)
  8004200d1b:	eb 22                	jmp    8004200d3f <cga_putc+0x22c>
			crt_buf[i] = 0x0700 | ' ';
  8004200d1d:	48 b8 08 00 4a 04 80 	movabs $0x80044a0008,%rax
  8004200d24:	00 00 00 
  8004200d27:	48 8b 00             	mov    (%rax),%rax
  8004200d2a:	8b 55 fc             	mov    -0x4(%rbp),%edx
  8004200d2d:	48 63 d2             	movslq %edx,%rdx
  8004200d30:	48 01 d2             	add    %rdx,%rdx
  8004200d33:	48 01 d0             	add    %rdx,%rax
  8004200d36:	66 c7 00 20 07       	movw   $0x720,(%rax)
	// What is the purpose of this?
	if (crt_pos >= CRT_SIZE) {
		int i;

		memmove(crt_buf, crt_buf + CRT_COLS, (CRT_SIZE - CRT_COLS) * sizeof(uint16_t));
		for (i = CRT_SIZE - CRT_COLS; i < CRT_SIZE; i++)
  8004200d3b:	83 45 fc 01          	addl   $0x1,-0x4(%rbp)
  8004200d3f:	81 7d fc cf 07 00 00 	cmpl   $0x7cf,-0x4(%rbp)
  8004200d46:	7e d5                	jle    8004200d1d <cga_putc+0x20a>
			crt_buf[i] = 0x0700 | ' ';
		crt_pos -= CRT_COLS;
  8004200d48:	48 b8 10 00 4a 04 80 	movabs $0x80044a0010,%rax
  8004200d4f:	00 00 00 
  8004200d52:	0f b7 00             	movzwl (%rax),%eax
  8004200d55:	8d 50 b0             	lea    -0x50(%rax),%edx
  8004200d58:	48 b8 10 00 4a 04 80 	movabs $0x80044a0010,%rax
  8004200d5f:	00 00 00 
  8004200d62:	66 89 10             	mov    %dx,(%rax)
	}

	/* move that little blinky thing */
	outb(addr_6845, 14);
  8004200d65:	48 b8 04 00 4a 04 80 	movabs $0x80044a0004,%rax
  8004200d6c:	00 00 00 
  8004200d6f:	8b 00                	mov    (%rax),%eax
  8004200d71:	89 45 f8             	mov    %eax,-0x8(%rbp)
  8004200d74:	c6 45 f7 0e          	movb   $0xe,-0x9(%rbp)
}

static __inline void
outb(int port, uint8_t data)
{
	__asm __volatile("outb %0,%w1" : : "a" (data), "d" (port));
  8004200d78:	0f b6 45 f7          	movzbl -0x9(%rbp),%eax
  8004200d7c:	8b 55 f8             	mov    -0x8(%rbp),%edx
  8004200d7f:	ee                   	out    %al,(%dx)
	outb(addr_6845 + 1, crt_pos >> 8);
  8004200d80:	48 b8 10 00 4a 04 80 	movabs $0x80044a0010,%rax
  8004200d87:	00 00 00 
  8004200d8a:	0f b7 00             	movzwl (%rax),%eax
  8004200d8d:	66 c1 e8 08          	shr    $0x8,%ax
  8004200d91:	0f b6 c0             	movzbl %al,%eax
  8004200d94:	48 ba 04 00 4a 04 80 	movabs $0x80044a0004,%rdx
  8004200d9b:	00 00 00 
  8004200d9e:	8b 12                	mov    (%rdx),%edx
  8004200da0:	83 c2 01             	add    $0x1,%edx
  8004200da3:	89 55 f0             	mov    %edx,-0x10(%rbp)
  8004200da6:	88 45 ef             	mov    %al,-0x11(%rbp)
  8004200da9:	0f b6 45 ef          	movzbl -0x11(%rbp),%eax
  8004200dad:	8b 55 f0             	mov    -0x10(%rbp),%edx
  8004200db0:	ee                   	out    %al,(%dx)
	outb(addr_6845, 15);
  8004200db1:	48 b8 04 00 4a 04 80 	movabs $0x80044a0004,%rax
  8004200db8:	00 00 00 
  8004200dbb:	8b 00                	mov    (%rax),%eax
  8004200dbd:	89 45 e8             	mov    %eax,-0x18(%rbp)
  8004200dc0:	c6 45 e7 0f          	movb   $0xf,-0x19(%rbp)
  8004200dc4:	0f b6 45 e7          	movzbl -0x19(%rbp),%eax
  8004200dc8:	8b 55 e8             	mov    -0x18(%rbp),%edx
  8004200dcb:	ee                   	out    %al,(%dx)
	outb(addr_6845 + 1, crt_pos);
  8004200dcc:	48 b8 10 00 4a 04 80 	movabs $0x80044a0010,%rax
  8004200dd3:	00 00 00 
  8004200dd6:	0f b7 00             	movzwl (%rax),%eax
  8004200dd9:	0f b6 c0             	movzbl %al,%eax
  8004200ddc:	48 ba 04 00 4a 04 80 	movabs $0x80044a0004,%rdx
  8004200de3:	00 00 00 
  8004200de6:	8b 12                	mov    (%rdx),%edx
  8004200de8:	83 c2 01             	add    $0x1,%edx
  8004200deb:	89 55 e0             	mov    %edx,-0x20(%rbp)
  8004200dee:	88 45 df             	mov    %al,-0x21(%rbp)
  8004200df1:	0f b6 45 df          	movzbl -0x21(%rbp),%eax
  8004200df5:	8b 55 e0             	mov    -0x20(%rbp),%edx
  8004200df8:	ee                   	out    %al,(%dx)
}
  8004200df9:	c9                   	leaveq 
  8004200dfa:	c3                   	retq   

0000008004200dfb <kbd_proc_data>:
 * Get data from the keyboard.  If we finish a character, return it.  Else 0.
 * Return -1 if no data.
 */
static int
kbd_proc_data(void)
{
  8004200dfb:	55                   	push   %rbp
  8004200dfc:	48 89 e5             	mov    %rsp,%rbp
  8004200dff:	48 83 ec 20          	sub    $0x20,%rsp
  8004200e03:	c7 45 f4 64 00 00 00 	movl   $0x64,-0xc(%rbp)

static __inline uint8_t
inb(int port)
{
	uint8_t data;
	__asm __volatile("inb %w1,%0" : "=a" (data) : "d" (port));
  8004200e0a:	8b 45 f4             	mov    -0xc(%rbp),%eax
  8004200e0d:	89 c2                	mov    %eax,%edx
  8004200e0f:	ec                   	in     (%dx),%al
  8004200e10:	88 45 f3             	mov    %al,-0xd(%rbp)
	return data;
  8004200e13:	0f b6 45 f3          	movzbl -0xd(%rbp),%eax
	int c;
	uint8_t data;
	static uint32_t shift;

	if ((inb(KBSTATP) & KBS_DIB) == 0)
  8004200e17:	0f b6 c0             	movzbl %al,%eax
  8004200e1a:	83 e0 01             	and    $0x1,%eax
  8004200e1d:	85 c0                	test   %eax,%eax
  8004200e1f:	75 0a                	jne    8004200e2b <kbd_proc_data+0x30>
		return -1;
  8004200e21:	b8 ff ff ff ff       	mov    $0xffffffff,%eax
  8004200e26:	e9 fc 01 00 00       	jmpq   8004201027 <kbd_proc_data+0x22c>
  8004200e2b:	c7 45 ec 60 00 00 00 	movl   $0x60,-0x14(%rbp)

static __inline uint8_t
inb(int port)
{
	uint8_t data;
	__asm __volatile("inb %w1,%0" : "=a" (data) : "d" (port));
  8004200e32:	8b 45 ec             	mov    -0x14(%rbp),%eax
  8004200e35:	89 c2                	mov    %eax,%edx
  8004200e37:	ec                   	in     (%dx),%al
  8004200e38:	88 45 eb             	mov    %al,-0x15(%rbp)
	return data;
  8004200e3b:	0f b6 45 eb          	movzbl -0x15(%rbp),%eax

	data = inb(KBDATAP);
  8004200e3f:	88 45 fb             	mov    %al,-0x5(%rbp)

	if (data == 0xE0) {
  8004200e42:	80 7d fb e0          	cmpb   $0xe0,-0x5(%rbp)
  8004200e46:	75 27                	jne    8004200e6f <kbd_proc_data+0x74>
		// E0 escape character
		shift |= E0ESC;
  8004200e48:	48 b8 28 02 4a 04 80 	movabs $0x80044a0228,%rax
  8004200e4f:	00 00 00 
  8004200e52:	8b 00                	mov    (%rax),%eax
  8004200e54:	83 c8 40             	or     $0x40,%eax
  8004200e57:	89 c2                	mov    %eax,%edx
  8004200e59:	48 b8 28 02 4a 04 80 	movabs $0x80044a0228,%rax
  8004200e60:	00 00 00 
  8004200e63:	89 10                	mov    %edx,(%rax)
		return 0;
  8004200e65:	b8 00 00 00 00       	mov    $0x0,%eax
  8004200e6a:	e9 b8 01 00 00       	jmpq   8004201027 <kbd_proc_data+0x22c>
	} else if (data & 0x80) {
  8004200e6f:	0f b6 45 fb          	movzbl -0x5(%rbp),%eax
  8004200e73:	84 c0                	test   %al,%al
  8004200e75:	79 65                	jns    8004200edc <kbd_proc_data+0xe1>
		// Key released
		data = (shift & E0ESC ? data : data & 0x7F);
  8004200e77:	48 b8 28 02 4a 04 80 	movabs $0x80044a0228,%rax
  8004200e7e:	00 00 00 
  8004200e81:	8b 00                	mov    (%rax),%eax
  8004200e83:	83 e0 40             	and    $0x40,%eax
  8004200e86:	85 c0                	test   %eax,%eax
  8004200e88:	75 09                	jne    8004200e93 <kbd_proc_data+0x98>
  8004200e8a:	0f b6 45 fb          	movzbl -0x5(%rbp),%eax
  8004200e8e:	83 e0 7f             	and    $0x7f,%eax
  8004200e91:	eb 04                	jmp    8004200e97 <kbd_proc_data+0x9c>
  8004200e93:	0f b6 45 fb          	movzbl -0x5(%rbp),%eax
  8004200e97:	88 45 fb             	mov    %al,-0x5(%rbp)
		shift &= ~(shiftcode[data] | E0ESC);
  8004200e9a:	0f b6 45 fb          	movzbl -0x5(%rbp),%eax
  8004200e9e:	48 ba 60 c0 22 04 80 	movabs $0x800422c060,%rdx
  8004200ea5:	00 00 00 
  8004200ea8:	48 98                	cltq   
  8004200eaa:	0f b6 04 02          	movzbl (%rdx,%rax,1),%eax
  8004200eae:	83 c8 40             	or     $0x40,%eax
  8004200eb1:	0f b6 c0             	movzbl %al,%eax
  8004200eb4:	f7 d0                	not    %eax
  8004200eb6:	89 c2                	mov    %eax,%edx
  8004200eb8:	48 b8 28 02 4a 04 80 	movabs $0x80044a0228,%rax
  8004200ebf:	00 00 00 
  8004200ec2:	8b 00                	mov    (%rax),%eax
  8004200ec4:	21 c2                	and    %eax,%edx
  8004200ec6:	48 b8 28 02 4a 04 80 	movabs $0x80044a0228,%rax
  8004200ecd:	00 00 00 
  8004200ed0:	89 10                	mov    %edx,(%rax)
		return 0;
  8004200ed2:	b8 00 00 00 00       	mov    $0x0,%eax
  8004200ed7:	e9 4b 01 00 00       	jmpq   8004201027 <kbd_proc_data+0x22c>
	} else if (shift & E0ESC) {
  8004200edc:	48 b8 28 02 4a 04 80 	movabs $0x80044a0228,%rax
  8004200ee3:	00 00 00 
  8004200ee6:	8b 00                	mov    (%rax),%eax
  8004200ee8:	83 e0 40             	and    $0x40,%eax
  8004200eeb:	85 c0                	test   %eax,%eax
  8004200eed:	74 21                	je     8004200f10 <kbd_proc_data+0x115>
		// Last character was an E0 escape; or with 0x80
		data |= 0x80;
  8004200eef:	80 4d fb 80          	orb    $0x80,-0x5(%rbp)
		shift &= ~E0ESC;
  8004200ef3:	48 b8 28 02 4a 04 80 	movabs $0x80044a0228,%rax
  8004200efa:	00 00 00 
  8004200efd:	8b 00                	mov    (%rax),%eax
  8004200eff:	83 e0 bf             	and    $0xffffffbf,%eax
  8004200f02:	89 c2                	mov    %eax,%edx
  8004200f04:	48 b8 28 02 4a 04 80 	movabs $0x80044a0228,%rax
  8004200f0b:	00 00 00 
  8004200f0e:	89 10                	mov    %edx,(%rax)
	}

	shift |= shiftcode[data];
  8004200f10:	0f b6 45 fb          	movzbl -0x5(%rbp),%eax
  8004200f14:	48 ba 60 c0 22 04 80 	movabs $0x800422c060,%rdx
  8004200f1b:	00 00 00 
  8004200f1e:	48 98                	cltq   
  8004200f20:	0f b6 04 02          	movzbl (%rdx,%rax,1),%eax
  8004200f24:	0f b6 d0             	movzbl %al,%edx
  8004200f27:	48 b8 28 02 4a 04 80 	movabs $0x80044a0228,%rax
  8004200f2e:	00 00 00 
  8004200f31:	8b 00                	mov    (%rax),%eax
  8004200f33:	09 c2                	or     %eax,%edx
  8004200f35:	48 b8 28 02 4a 04 80 	movabs $0x80044a0228,%rax
  8004200f3c:	00 00 00 
  8004200f3f:	89 10                	mov    %edx,(%rax)
	shift ^= togglecode[data];
  8004200f41:	0f b6 45 fb          	movzbl -0x5(%rbp),%eax
  8004200f45:	48 ba 60 c1 22 04 80 	movabs $0x800422c160,%rdx
  8004200f4c:	00 00 00 
  8004200f4f:	48 98                	cltq   
  8004200f51:	0f b6 04 02          	movzbl (%rdx,%rax,1),%eax
  8004200f55:	0f b6 d0             	movzbl %al,%edx
  8004200f58:	48 b8 28 02 4a 04 80 	movabs $0x80044a0228,%rax
  8004200f5f:	00 00 00 
  8004200f62:	8b 00                	mov    (%rax),%eax
  8004200f64:	31 c2                	xor    %eax,%edx
  8004200f66:	48 b8 28 02 4a 04 80 	movabs $0x80044a0228,%rax
  8004200f6d:	00 00 00 
  8004200f70:	89 10                	mov    %edx,(%rax)

	c = charcode[shift & (CTL | SHIFT)][data];
  8004200f72:	48 b8 28 02 4a 04 80 	movabs $0x80044a0228,%rax
  8004200f79:	00 00 00 
  8004200f7c:	8b 00                	mov    (%rax),%eax
  8004200f7e:	83 e0 03             	and    $0x3,%eax
  8004200f81:	89 c2                	mov    %eax,%edx
  8004200f83:	48 b8 60 c5 22 04 80 	movabs $0x800422c560,%rax
  8004200f8a:	00 00 00 
  8004200f8d:	89 d2                	mov    %edx,%edx
  8004200f8f:	48 8b 14 d0          	mov    (%rax,%rdx,8),%rdx
  8004200f93:	0f b6 45 fb          	movzbl -0x5(%rbp),%eax
  8004200f97:	48 01 d0             	add    %rdx,%rax
  8004200f9a:	0f b6 00             	movzbl (%rax),%eax
  8004200f9d:	0f b6 c0             	movzbl %al,%eax
  8004200fa0:	89 45 fc             	mov    %eax,-0x4(%rbp)
	if (shift & CAPSLOCK) {
  8004200fa3:	48 b8 28 02 4a 04 80 	movabs $0x80044a0228,%rax
  8004200faa:	00 00 00 
  8004200fad:	8b 00                	mov    (%rax),%eax
  8004200faf:	83 e0 08             	and    $0x8,%eax
  8004200fb2:	85 c0                	test   %eax,%eax
  8004200fb4:	74 22                	je     8004200fd8 <kbd_proc_data+0x1dd>
		if ('a' <= c && c <= 'z')
  8004200fb6:	83 7d fc 60          	cmpl   $0x60,-0x4(%rbp)
  8004200fba:	7e 0c                	jle    8004200fc8 <kbd_proc_data+0x1cd>
  8004200fbc:	83 7d fc 7a          	cmpl   $0x7a,-0x4(%rbp)
  8004200fc0:	7f 06                	jg     8004200fc8 <kbd_proc_data+0x1cd>
			c += 'A' - 'a';
  8004200fc2:	83 6d fc 20          	subl   $0x20,-0x4(%rbp)
  8004200fc6:	eb 10                	jmp    8004200fd8 <kbd_proc_data+0x1dd>
		else if ('A' <= c && c <= 'Z')
  8004200fc8:	83 7d fc 40          	cmpl   $0x40,-0x4(%rbp)
  8004200fcc:	7e 0a                	jle    8004200fd8 <kbd_proc_data+0x1dd>
  8004200fce:	83 7d fc 5a          	cmpl   $0x5a,-0x4(%rbp)
  8004200fd2:	7f 04                	jg     8004200fd8 <kbd_proc_data+0x1dd>
			c += 'a' - 'A';
  8004200fd4:	83 45 fc 20          	addl   $0x20,-0x4(%rbp)
	}

	// Process special keys
	// Ctrl-Alt-Del: reboot
	if (!(~shift & (CTL | ALT)) && c == KEY_DEL) {
  8004200fd8:	48 b8 28 02 4a 04 80 	movabs $0x80044a0228,%rax
  8004200fdf:	00 00 00 
  8004200fe2:	8b 00                	mov    (%rax),%eax
  8004200fe4:	f7 d0                	not    %eax
  8004200fe6:	83 e0 06             	and    $0x6,%eax
  8004200fe9:	85 c0                	test   %eax,%eax
  8004200feb:	75 37                	jne    8004201024 <kbd_proc_data+0x229>
  8004200fed:	81 7d fc e9 00 00 00 	cmpl   $0xe9,-0x4(%rbp)
  8004200ff4:	75 2e                	jne    8004201024 <kbd_proc_data+0x229>
		cprintf("Rebooting!\n");
  8004200ff6:	48 bf 26 6f 21 04 80 	movabs $0x8004216f26,%rdi
  8004200ffd:	00 00 00 
  8004201000:	b8 00 00 00 00       	mov    $0x0,%eax
  8004201005:	48 ba 99 8d 20 04 80 	movabs $0x8004208d99,%rdx
  800420100c:	00 00 00 
  800420100f:	ff d2                	callq  *%rdx
  8004201011:	c7 45 e4 92 00 00 00 	movl   $0x92,-0x1c(%rbp)
  8004201018:	c6 45 e3 03          	movb   $0x3,-0x1d(%rbp)
}

static __inline void
outb(int port, uint8_t data)
{
	__asm __volatile("outb %0,%w1" : : "a" (data), "d" (port));
  800420101c:	0f b6 45 e3          	movzbl -0x1d(%rbp),%eax
  8004201020:	8b 55 e4             	mov    -0x1c(%rbp),%edx
  8004201023:	ee                   	out    %al,(%dx)
		outb(0x92, 0x3); // courtesy of Chris Frost
	}

	return c;
  8004201024:	8b 45 fc             	mov    -0x4(%rbp),%eax
}
  8004201027:	c9                   	leaveq 
  8004201028:	c3                   	retq   

0000008004201029 <kbd_intr>:

void
kbd_intr(void)
{
  8004201029:	55                   	push   %rbp
  800420102a:	48 89 e5             	mov    %rsp,%rbp
	cons_intr(kbd_proc_data);
  800420102d:	48 bf fb 0d 20 04 80 	movabs $0x8004200dfb,%rdi
  8004201034:	00 00 00 
  8004201037:	48 b8 7a 10 20 04 80 	movabs $0x800420107a,%rax
  800420103e:	00 00 00 
  8004201041:	ff d0                	callq  *%rax
}
  8004201043:	5d                   	pop    %rbp
  8004201044:	c3                   	retq   

0000008004201045 <kbd_init>:

static void
kbd_init(void)
{
  8004201045:	55                   	push   %rbp
  8004201046:	48 89 e5             	mov    %rsp,%rbp
	// Drain the kbd buffer so that Bochs generates interrupts.
	kbd_intr();
  8004201049:	48 b8 29 10 20 04 80 	movabs $0x8004201029,%rax
  8004201050:	00 00 00 
  8004201053:	ff d0                	callq  *%rax
	irq_setmask_8259A(irq_mask_8259A & ~(1<<1));
  8004201055:	48 b8 92 c6 22 04 80 	movabs $0x800422c692,%rax
  800420105c:	00 00 00 
  800420105f:	0f b7 00             	movzwl (%rax),%eax
  8004201062:	0f b7 c0             	movzwl %ax,%eax
  8004201065:	25 fd ff 00 00       	and    $0xfffd,%eax
  800420106a:	89 c7                	mov    %eax,%edi
  800420106c:	48 b8 1b 8c 20 04 80 	movabs $0x8004208c1b,%rax
  8004201073:	00 00 00 
  8004201076:	ff d0                	callq  *%rax
}
  8004201078:	5d                   	pop    %rbp
  8004201079:	c3                   	retq   

000000800420107a <cons_intr>:

// called by device interrupt routines to feed input characters
// into the circular console input buffer.
static void
cons_intr(int (*proc)(void))
{
  800420107a:	55                   	push   %rbp
  800420107b:	48 89 e5             	mov    %rsp,%rbp
  800420107e:	48 83 ec 20          	sub    $0x20,%rsp
  8004201082:	48 89 7d e8          	mov    %rdi,-0x18(%rbp)
	int c;

	while ((c = (*proc)()) != -1) {
  8004201086:	eb 6a                	jmp    80042010f2 <cons_intr+0x78>
		if (c == 0)
  8004201088:	83 7d fc 00          	cmpl   $0x0,-0x4(%rbp)
  800420108c:	75 02                	jne    8004201090 <cons_intr+0x16>
			continue;
  800420108e:	eb 62                	jmp    80042010f2 <cons_intr+0x78>
		cons.buf[cons.wpos++] = c;
  8004201090:	48 b8 20 00 4a 04 80 	movabs $0x80044a0020,%rax
  8004201097:	00 00 00 
  800420109a:	8b 80 04 02 00 00    	mov    0x204(%rax),%eax
  80042010a0:	8d 48 01             	lea    0x1(%rax),%ecx
  80042010a3:	48 ba 20 00 4a 04 80 	movabs $0x80044a0020,%rdx
  80042010aa:	00 00 00 
  80042010ad:	89 8a 04 02 00 00    	mov    %ecx,0x204(%rdx)
  80042010b3:	8b 55 fc             	mov    -0x4(%rbp),%edx
  80042010b6:	89 d1                	mov    %edx,%ecx
  80042010b8:	48 ba 20 00 4a 04 80 	movabs $0x80044a0020,%rdx
  80042010bf:	00 00 00 
  80042010c2:	89 c0                	mov    %eax,%eax
  80042010c4:	88 0c 02             	mov    %cl,(%rdx,%rax,1)
		if (cons.wpos == CONSBUFSIZE)
  80042010c7:	48 b8 20 00 4a 04 80 	movabs $0x80044a0020,%rax
  80042010ce:	00 00 00 
  80042010d1:	8b 80 04 02 00 00    	mov    0x204(%rax),%eax
  80042010d7:	3d 00 02 00 00       	cmp    $0x200,%eax
  80042010dc:	75 14                	jne    80042010f2 <cons_intr+0x78>
			cons.wpos = 0;
  80042010de:	48 b8 20 00 4a 04 80 	movabs $0x80044a0020,%rax
  80042010e5:	00 00 00 
  80042010e8:	c7 80 04 02 00 00 00 	movl   $0x0,0x204(%rax)
  80042010ef:	00 00 00 
static void
cons_intr(int (*proc)(void))
{
	int c;

	while ((c = (*proc)()) != -1) {
  80042010f2:	48 8b 45 e8          	mov    -0x18(%rbp),%rax
  80042010f6:	ff d0                	callq  *%rax
  80042010f8:	89 45 fc             	mov    %eax,-0x4(%rbp)
  80042010fb:	83 7d fc ff          	cmpl   $0xffffffff,-0x4(%rbp)
  80042010ff:	75 87                	jne    8004201088 <cons_intr+0xe>
			continue;
		cons.buf[cons.wpos++] = c;
		if (cons.wpos == CONSBUFSIZE)
			cons.wpos = 0;
	}
}
  8004201101:	c9                   	leaveq 
  8004201102:	c3                   	retq   

0000008004201103 <cons_getc>:

// return the next input character from the console, or 0 if none waiting
int
cons_getc(void)
{
  8004201103:	55                   	push   %rbp
  8004201104:	48 89 e5             	mov    %rsp,%rbp
  8004201107:	48 83 ec 10          	sub    $0x10,%rsp
	int c;

	// poll for any pending input characters,
	// so that this function works even when interrupts are disabled
	// (e.g., when called from the kernel monitor).
	serial_intr();
  800420110b:	48 b8 da 07 20 04 80 	movabs $0x80042007da,%rax
  8004201112:	00 00 00 
  8004201115:	ff d0                	callq  *%rax
	kbd_intr();
  8004201117:	48 b8 29 10 20 04 80 	movabs $0x8004201029,%rax
  800420111e:	00 00 00 
  8004201121:	ff d0                	callq  *%rax

	// grab the next character from the input buffer.
	if (cons.rpos != cons.wpos) {
  8004201123:	48 b8 20 00 4a 04 80 	movabs $0x80044a0020,%rax
  800420112a:	00 00 00 
  800420112d:	8b 90 00 02 00 00    	mov    0x200(%rax),%edx
  8004201133:	48 b8 20 00 4a 04 80 	movabs $0x80044a0020,%rax
  800420113a:	00 00 00 
  800420113d:	8b 80 04 02 00 00    	mov    0x204(%rax),%eax
  8004201143:	39 c2                	cmp    %eax,%edx
  8004201145:	74 69                	je     80042011b0 <cons_getc+0xad>
		c = cons.buf[cons.rpos++];
  8004201147:	48 b8 20 00 4a 04 80 	movabs $0x80044a0020,%rax
  800420114e:	00 00 00 
  8004201151:	8b 80 00 02 00 00    	mov    0x200(%rax),%eax
  8004201157:	8d 48 01             	lea    0x1(%rax),%ecx
  800420115a:	48 ba 20 00 4a 04 80 	movabs $0x80044a0020,%rdx
  8004201161:	00 00 00 
  8004201164:	89 8a 00 02 00 00    	mov    %ecx,0x200(%rdx)
  800420116a:	48 ba 20 00 4a 04 80 	movabs $0x80044a0020,%rdx
  8004201171:	00 00 00 
  8004201174:	89 c0                	mov    %eax,%eax
  8004201176:	0f b6 04 02          	movzbl (%rdx,%rax,1),%eax
  800420117a:	0f b6 c0             	movzbl %al,%eax
  800420117d:	89 45 fc             	mov    %eax,-0x4(%rbp)
		if (cons.rpos == CONSBUFSIZE)
  8004201180:	48 b8 20 00 4a 04 80 	movabs $0x80044a0020,%rax
  8004201187:	00 00 00 
  800420118a:	8b 80 00 02 00 00    	mov    0x200(%rax),%eax
  8004201190:	3d 00 02 00 00       	cmp    $0x200,%eax
  8004201195:	75 14                	jne    80042011ab <cons_getc+0xa8>
			cons.rpos = 0;
  8004201197:	48 b8 20 00 4a 04 80 	movabs $0x80044a0020,%rax
  800420119e:	00 00 00 
  80042011a1:	c7 80 00 02 00 00 00 	movl   $0x0,0x200(%rax)
  80042011a8:	00 00 00 
		return c;
  80042011ab:	8b 45 fc             	mov    -0x4(%rbp),%eax
  80042011ae:	eb 05                	jmp    80042011b5 <cons_getc+0xb2>
	}
	return 0;
  80042011b0:	b8 00 00 00 00       	mov    $0x0,%eax
}
  80042011b5:	c9                   	leaveq 
  80042011b6:	c3                   	retq   

00000080042011b7 <cons_putc>:

// output a character to the console
static void
cons_putc(int c)
{
  80042011b7:	55                   	push   %rbp
  80042011b8:	48 89 e5             	mov    %rsp,%rbp
  80042011bb:	48 83 ec 10          	sub    $0x10,%rsp
  80042011bf:	89 7d fc             	mov    %edi,-0x4(%rbp)
	serial_putc(c);
  80042011c2:	8b 45 fc             	mov    -0x4(%rbp),%eax
  80042011c5:	89 c7                	mov    %eax,%edi
  80042011c7:	48 b8 07 08 20 04 80 	movabs $0x8004200807,%rax
  80042011ce:	00 00 00 
  80042011d1:	ff d0                	callq  *%rax
	lpt_putc(c);
  80042011d3:	8b 45 fc             	mov    -0x4(%rbp),%eax
  80042011d6:	89 c7                	mov    %eax,%edi
  80042011d8:	48 b8 74 09 20 04 80 	movabs $0x8004200974,%rax
  80042011df:	00 00 00 
  80042011e2:	ff d0                	callq  *%rax
	cga_putc(c);
  80042011e4:	8b 45 fc             	mov    -0x4(%rbp),%eax
  80042011e7:	89 c7                	mov    %eax,%edi
  80042011e9:	48 b8 13 0b 20 04 80 	movabs $0x8004200b13,%rax
  80042011f0:	00 00 00 
  80042011f3:	ff d0                	callq  *%rax
}
  80042011f5:	c9                   	leaveq 
  80042011f6:	c3                   	retq   

00000080042011f7 <cons_init>:

// initialize the console devices
void
cons_init(void)
{
  80042011f7:	55                   	push   %rbp
  80042011f8:	48 89 e5             	mov    %rsp,%rbp
	cga_init();
  80042011fb:	48 b8 f9 09 20 04 80 	movabs $0x80042009f9,%rax
  8004201202:	00 00 00 
  8004201205:	ff d0                	callq  *%rax
	kbd_init();
  8004201207:	48 b8 45 10 20 04 80 	movabs $0x8004201045,%rax
  800420120e:	00 00 00 
  8004201211:	ff d0                	callq  *%rax
	serial_init();
  8004201213:	48 b8 6c 08 20 04 80 	movabs $0x800420086c,%rax
  800420121a:	00 00 00 
  800420121d:	ff d0                	callq  *%rax

	if (!serial_exists)
  800420121f:	48 b8 00 00 4a 04 80 	movabs $0x80044a0000,%rax
  8004201226:	00 00 00 
  8004201229:	0f b6 00             	movzbl (%rax),%eax
  800420122c:	83 f0 01             	xor    $0x1,%eax
  800420122f:	84 c0                	test   %al,%al
  8004201231:	74 1b                	je     800420124e <cons_init+0x57>
		cprintf("Serial port does not exist!\n");
  8004201233:	48 bf 32 6f 21 04 80 	movabs $0x8004216f32,%rdi
  800420123a:	00 00 00 
  800420123d:	b8 00 00 00 00       	mov    $0x0,%eax
  8004201242:	48 ba 99 8d 20 04 80 	movabs $0x8004208d99,%rdx
  8004201249:	00 00 00 
  800420124c:	ff d2                	callq  *%rdx
}
  800420124e:	5d                   	pop    %rbp
  800420124f:	c3                   	retq   

0000008004201250 <cputchar>:

// `High'-level console I/O.  Used by readline and cprintf.

void
cputchar(int c)
{
  8004201250:	55                   	push   %rbp
  8004201251:	48 89 e5             	mov    %rsp,%rbp
  8004201254:	48 83 ec 10          	sub    $0x10,%rsp
  8004201258:	89 7d fc             	mov    %edi,-0x4(%rbp)
	cons_putc(c);
  800420125b:	8b 45 fc             	mov    -0x4(%rbp),%eax
  800420125e:	89 c7                	mov    %eax,%edi
  8004201260:	48 b8 b7 11 20 04 80 	movabs $0x80042011b7,%rax
  8004201267:	00 00 00 
  800420126a:	ff d0                	callq  *%rax
}
  800420126c:	c9                   	leaveq 
  800420126d:	c3                   	retq   

000000800420126e <getchar>:

int
getchar(void)
{
  800420126e:	55                   	push   %rbp
  800420126f:	48 89 e5             	mov    %rsp,%rbp
  8004201272:	48 83 ec 10          	sub    $0x10,%rsp
	int c;

	while ((c = cons_getc()) == 0)
  8004201276:	48 b8 03 11 20 04 80 	movabs $0x8004201103,%rax
  800420127d:	00 00 00 
  8004201280:	ff d0                	callq  *%rax
  8004201282:	89 45 fc             	mov    %eax,-0x4(%rbp)
  8004201285:	83 7d fc 00          	cmpl   $0x0,-0x4(%rbp)
  8004201289:	74 eb                	je     8004201276 <getchar+0x8>
		/* do nothing */;
	return c;
  800420128b:	8b 45 fc             	mov    -0x4(%rbp),%eax
}
  800420128e:	c9                   	leaveq 
  800420128f:	c3                   	retq   

0000008004201290 <iscons>:

int
iscons(int fdnum)
{
  8004201290:	55                   	push   %rbp
  8004201291:	48 89 e5             	mov    %rsp,%rbp
  8004201294:	48 83 ec 04          	sub    $0x4,%rsp
  8004201298:	89 7d fc             	mov    %edi,-0x4(%rbp)
	// used by readline
	return 1;
  800420129b:	b8 01 00 00 00       	mov    $0x1,%eax
}
  80042012a0:	c9                   	leaveq 
  80042012a1:	c3                   	retq   

00000080042012a2 <mon_help>:

/***** Implementations of basic kernel monitor commands *****/

int
mon_help(int argc, char **argv, struct Trapframe *tf)
{
  80042012a2:	55                   	push   %rbp
  80042012a3:	48 89 e5             	mov    %rsp,%rbp
  80042012a6:	48 83 ec 30          	sub    $0x30,%rsp
  80042012aa:	89 7d ec             	mov    %edi,-0x14(%rbp)
  80042012ad:	48 89 75 e0          	mov    %rsi,-0x20(%rbp)
  80042012b1:	48 89 55 d8          	mov    %rdx,-0x28(%rbp)
	int i;

	for (i = 0; i < NCOMMANDS; i++)
  80042012b5:	c7 45 fc 00 00 00 00 	movl   $0x0,-0x4(%rbp)
  80042012bc:	eb 6c                	jmp    800420132a <mon_help+0x88>
		cprintf("%s - %s\n", commands[i].name, commands[i].desc);
  80042012be:	48 b9 80 c5 22 04 80 	movabs $0x800422c580,%rcx
  80042012c5:	00 00 00 
  80042012c8:	8b 45 fc             	mov    -0x4(%rbp),%eax
  80042012cb:	48 63 d0             	movslq %eax,%rdx
  80042012ce:	48 89 d0             	mov    %rdx,%rax
  80042012d1:	48 01 c0             	add    %rax,%rax
  80042012d4:	48 01 d0             	add    %rdx,%rax
  80042012d7:	48 c1 e0 03          	shl    $0x3,%rax
  80042012db:	48 01 c8             	add    %rcx,%rax
  80042012de:	48 8b 48 08          	mov    0x8(%rax),%rcx
  80042012e2:	48 be 80 c5 22 04 80 	movabs $0x800422c580,%rsi
  80042012e9:	00 00 00 
  80042012ec:	8b 45 fc             	mov    -0x4(%rbp),%eax
  80042012ef:	48 63 d0             	movslq %eax,%rdx
  80042012f2:	48 89 d0             	mov    %rdx,%rax
  80042012f5:	48 01 c0             	add    %rax,%rax
  80042012f8:	48 01 d0             	add    %rdx,%rax
  80042012fb:	48 c1 e0 03          	shl    $0x3,%rax
  80042012ff:	48 01 f0             	add    %rsi,%rax
  8004201302:	48 8b 00             	mov    (%rax),%rax
  8004201305:	48 89 ca             	mov    %rcx,%rdx
  8004201308:	48 89 c6             	mov    %rax,%rsi
  800420130b:	48 bf ca 6f 21 04 80 	movabs $0x8004216fca,%rdi
  8004201312:	00 00 00 
  8004201315:	b8 00 00 00 00       	mov    $0x0,%eax
  800420131a:	48 b9 99 8d 20 04 80 	movabs $0x8004208d99,%rcx
  8004201321:	00 00 00 
  8004201324:	ff d1                	callq  *%rcx
int
mon_help(int argc, char **argv, struct Trapframe *tf)
{
	int i;

	for (i = 0; i < NCOMMANDS; i++)
  8004201326:	83 45 fc 01          	addl   $0x1,-0x4(%rbp)
  800420132a:	8b 45 fc             	mov    -0x4(%rbp),%eax
  800420132d:	83 f8 02             	cmp    $0x2,%eax
  8004201330:	76 8c                	jbe    80042012be <mon_help+0x1c>
		cprintf("%s - %s\n", commands[i].name, commands[i].desc);
	cprintf("%d",sizeof(int));	
  8004201332:	be 04 00 00 00       	mov    $0x4,%esi
  8004201337:	48 bf d3 6f 21 04 80 	movabs $0x8004216fd3,%rdi
  800420133e:	00 00 00 
  8004201341:	b8 00 00 00 00       	mov    $0x0,%eax
  8004201346:	48 ba 99 8d 20 04 80 	movabs $0x8004208d99,%rdx
  800420134d:	00 00 00 
  8004201350:	ff d2                	callq  *%rdx
	return 0;
  8004201352:	b8 00 00 00 00       	mov    $0x0,%eax
}
  8004201357:	c9                   	leaveq 
  8004201358:	c3                   	retq   

0000008004201359 <mon_kerninfo>:

int
mon_kerninfo(int argc, char **argv, struct Trapframe *tf)
{
  8004201359:	55                   	push   %rbp
  800420135a:	48 89 e5             	mov    %rsp,%rbp
  800420135d:	48 83 ec 30          	sub    $0x30,%rsp
  8004201361:	89 7d ec             	mov    %edi,-0x14(%rbp)
  8004201364:	48 89 75 e0          	mov    %rsi,-0x20(%rbp)
  8004201368:	48 89 55 d8          	mov    %rdx,-0x28(%rbp)
	extern char _start[], entry[], etext[], edata[], end[];

	cprintf("Special kernel symbols:\n");
  800420136c:	48 bf d6 6f 21 04 80 	movabs $0x8004216fd6,%rdi
  8004201373:	00 00 00 
  8004201376:	b8 00 00 00 00       	mov    $0x0,%eax
  800420137b:	48 ba 99 8d 20 04 80 	movabs $0x8004208d99,%rdx
  8004201382:	00 00 00 
  8004201385:	ff d2                	callq  *%rdx
	cprintf("  _start                  %08x (phys)\n", _start);
  8004201387:	48 be 0c 00 20 00 00 	movabs $0x20000c,%rsi
  800420138e:	00 00 00 
  8004201391:	48 bf f0 6f 21 04 80 	movabs $0x8004216ff0,%rdi
  8004201398:	00 00 00 
  800420139b:	b8 00 00 00 00       	mov    $0x0,%eax
  80042013a0:	48 ba 99 8d 20 04 80 	movabs $0x8004208d99,%rdx
  80042013a7:	00 00 00 
  80042013aa:	ff d2                	callq  *%rdx
	cprintf("  entry  %08x (virt)  %08x (phys)\n", entry, entry - KERNBASE);
  80042013ac:	48 ba 0c 00 20 00 00 	movabs $0x20000c,%rdx
  80042013b3:	00 00 00 
  80042013b6:	48 be 0c 00 20 04 80 	movabs $0x800420000c,%rsi
  80042013bd:	00 00 00 
  80042013c0:	48 bf 18 70 21 04 80 	movabs $0x8004217018,%rdi
  80042013c7:	00 00 00 
  80042013ca:	b8 00 00 00 00       	mov    $0x0,%eax
  80042013cf:	48 b9 99 8d 20 04 80 	movabs $0x8004208d99,%rcx
  80042013d6:	00 00 00 
  80042013d9:	ff d1                	callq  *%rcx
	cprintf("  etext  %08x (virt)  %08x (phys)\n", etext, etext - KERNBASE);
  80042013db:	48 ba 01 6e 21 00 00 	movabs $0x216e01,%rdx
  80042013e2:	00 00 00 
  80042013e5:	48 be 01 6e 21 04 80 	movabs $0x8004216e01,%rsi
  80042013ec:	00 00 00 
  80042013ef:	48 bf 40 70 21 04 80 	movabs $0x8004217040,%rdi
  80042013f6:	00 00 00 
  80042013f9:	b8 00 00 00 00       	mov    $0x0,%eax
  80042013fe:	48 b9 99 8d 20 04 80 	movabs $0x8004208d99,%rcx
  8004201405:	00 00 00 
  8004201408:	ff d1                	callq  *%rcx
	cprintf("  edata  %08x (virt)  %08x (phys)\n", edata, edata - KERNBASE);
  800420140a:	48 ba 2c f0 49 00 00 	movabs $0x49f02c,%rdx
  8004201411:	00 00 00 
  8004201414:	48 be 2c f0 49 04 80 	movabs $0x800449f02c,%rsi
  800420141b:	00 00 00 
  800420141e:	48 bf 68 70 21 04 80 	movabs $0x8004217068,%rdi
  8004201425:	00 00 00 
  8004201428:	b8 00 00 00 00       	mov    $0x0,%eax
  800420142d:	48 b9 99 8d 20 04 80 	movabs $0x8004208d99,%rcx
  8004201434:	00 00 00 
  8004201437:	ff d1                	callq  *%rcx
	cprintf("  end    %08x (virt)  %08x (phys)\n", end, end - KERNBASE);
  8004201439:	48 ba 10 40 52 00 00 	movabs $0x524010,%rdx
  8004201440:	00 00 00 
  8004201443:	48 be 10 40 52 04 80 	movabs $0x8004524010,%rsi
  800420144a:	00 00 00 
  800420144d:	48 bf 90 70 21 04 80 	movabs $0x8004217090,%rdi
  8004201454:	00 00 00 
  8004201457:	b8 00 00 00 00       	mov    $0x0,%eax
  800420145c:	48 b9 99 8d 20 04 80 	movabs $0x8004208d99,%rcx
  8004201463:	00 00 00 
  8004201466:	ff d1                	callq  *%rcx
	cprintf("Kernel executable memory footprint: %dKB\n",
		ROUNDUP(end - entry, 1024) / 1024);
  8004201468:	48 c7 45 f8 00 04 00 	movq   $0x400,-0x8(%rbp)
  800420146f:	00 
  8004201470:	48 b8 0c 00 20 04 80 	movabs $0x800420000c,%rax
  8004201477:	00 00 00 
  800420147a:	48 8b 55 f8          	mov    -0x8(%rbp),%rdx
  800420147e:	48 29 c2             	sub    %rax,%rdx
  8004201481:	48 b8 10 40 52 04 80 	movabs $0x8004524010,%rax
  8004201488:	00 00 00 
  800420148b:	48 83 e8 01          	sub    $0x1,%rax
  800420148f:	48 01 d0             	add    %rdx,%rax
  8004201492:	48 89 45 f0          	mov    %rax,-0x10(%rbp)
  8004201496:	48 8b 45 f0          	mov    -0x10(%rbp),%rax
  800420149a:	ba 00 00 00 00       	mov    $0x0,%edx
  800420149f:	48 f7 75 f8          	divq   -0x8(%rbp)
  80042014a3:	48 89 d0             	mov    %rdx,%rax
  80042014a6:	48 8b 55 f0          	mov    -0x10(%rbp),%rdx
  80042014aa:	48 29 c2             	sub    %rax,%rdx
  80042014ad:	48 89 d0             	mov    %rdx,%rax
	cprintf("  _start                  %08x (phys)\n", _start);
	cprintf("  entry  %08x (virt)  %08x (phys)\n", entry, entry - KERNBASE);
	cprintf("  etext  %08x (virt)  %08x (phys)\n", etext, etext - KERNBASE);
	cprintf("  edata  %08x (virt)  %08x (phys)\n", edata, edata - KERNBASE);
	cprintf("  end    %08x (virt)  %08x (phys)\n", end, end - KERNBASE);
	cprintf("Kernel executable memory footprint: %dKB\n",
  80042014b0:	48 8d 90 ff 03 00 00 	lea    0x3ff(%rax),%rdx
  80042014b7:	48 85 c0             	test   %rax,%rax
  80042014ba:	48 0f 48 c2          	cmovs  %rdx,%rax
  80042014be:	48 c1 f8 0a          	sar    $0xa,%rax
  80042014c2:	48 89 c6             	mov    %rax,%rsi
  80042014c5:	48 bf b8 70 21 04 80 	movabs $0x80042170b8,%rdi
  80042014cc:	00 00 00 
  80042014cf:	b8 00 00 00 00       	mov    $0x0,%eax
  80042014d4:	48 ba 99 8d 20 04 80 	movabs $0x8004208d99,%rdx
  80042014db:	00 00 00 
  80042014de:	ff d2                	callq  *%rdx
		ROUNDUP(end - entry, 1024) / 1024);
	return 0;
  80042014e0:	b8 00 00 00 00       	mov    $0x0,%eax
}
  80042014e5:	c9                   	leaveq 
  80042014e6:	c3                   	retq   

00000080042014e7 <printArgList>:

void printArgList(uint64_t* prbp, struct Ripdebuginfo *info)
{
  80042014e7:	55                   	push   %rbp
  80042014e8:	48 89 e5             	mov    %rsp,%rbp
  80042014eb:	48 83 ec 30          	sub    $0x30,%rsp
  80042014ef:	48 89 7d d8          	mov    %rdi,-0x28(%rbp)
  80042014f3:	48 89 75 d0          	mov    %rsi,-0x30(%rbp)
	uint64_t* tprbp = (uint64_t*)(prbp - 4);
  80042014f7:	48 8b 45 d8          	mov    -0x28(%rbp),%rax
  80042014fb:	48 83 e8 20          	sub    $0x20,%rax
  80042014ff:	48 89 45 f8          	mov    %rax,-0x8(%rbp)
	int numberArg = info->rip_fn_narg;
  8004201503:	48 8b 45 d0          	mov    -0x30(%rbp),%rax
  8004201507:	8b 40 28             	mov    0x28(%rax),%eax
  800420150a:	89 45 f4             	mov    %eax,-0xc(%rbp)
	int i = 0;
  800420150d:	c7 45 f0 00 00 00 00 	movl   $0x0,-0x10(%rbp)
	uint64_t size = 0;
  8004201514:	48 c7 45 e8 00 00 00 	movq   $0x0,-0x18(%rbp)
  800420151b:	00 
	if(numberArg <= 0)
  800420151c:	83 7d f4 00          	cmpl   $0x0,-0xc(%rbp)
  8004201520:	7f 20                	jg     8004201542 <printArgList+0x5b>
	{
		cprintf("\n");
  8004201522:	48 bf e2 70 21 04 80 	movabs $0x80042170e2,%rdi
  8004201529:	00 00 00 
  800420152c:	b8 00 00 00 00       	mov    $0x0,%eax
  8004201531:	48 ba 99 8d 20 04 80 	movabs $0x8004208d99,%rdx
  8004201538:	00 00 00 
  800420153b:	ff d2                	callq  *%rdx
		return;
  800420153d:	e9 0f 01 00 00       	jmpq   8004201651 <printArgList+0x16a>
	}
	
	while(numberArg > 0)
  8004201542:	e9 e5 00 00 00       	jmpq   800420162c <printArgList+0x145>
	{
		//cprintf("size of argument %d is %d %x",i, info->size_fn_arg[i],*prbp);
		size = info->size_fn_arg[i];
  8004201547:	48 8b 45 d0          	mov    -0x30(%rbp),%rax
  800420154b:	8b 55 f0             	mov    -0x10(%rbp),%edx
  800420154e:	48 63 d2             	movslq %edx,%rdx
  8004201551:	48 83 c2 08          	add    $0x8,%rdx
  8004201555:	8b 44 90 0c          	mov    0xc(%rax,%rdx,4),%eax
  8004201559:	48 98                	cltq   
  800420155b:	48 89 45 e8          	mov    %rax,-0x18(%rbp)
		cprintf(" ");
  800420155f:	48 bf e4 70 21 04 80 	movabs $0x80042170e4,%rdi
  8004201566:	00 00 00 
  8004201569:	b8 00 00 00 00       	mov    $0x0,%eax
  800420156e:	48 ba 99 8d 20 04 80 	movabs $0x8004208d99,%rdx
  8004201575:	00 00 00 
  8004201578:	ff d2                	callq  *%rdx
		switch(size)
  800420157a:	48 8b 45 e8          	mov    -0x18(%rbp),%rax
  800420157e:	48 83 f8 04          	cmp    $0x4,%rax
  8004201582:	74 43                	je     80042015c7 <printArgList+0xe0>
  8004201584:	48 83 f8 08          	cmp    $0x8,%rax
  8004201588:	74 6b                	je     80042015f5 <printArgList+0x10e>
  800420158a:	48 83 f8 01          	cmp    $0x1,%rax
  800420158e:	74 05                	je     8004201595 <printArgList+0xae>
			case 8:
				cprintf("%016x",*(tprbp -1));
				tprbp = tprbp - 1;
				break;
			default:
				break;
  8004201590:	e9 8f 00 00 00       	jmpq   8004201624 <printArgList+0x13d>
		size = info->size_fn_arg[i];
		cprintf(" ");
		switch(size)
		{
			case 1:
				cprintf("%016x",*((char*)tprbp -1));
  8004201595:	48 8b 45 f8          	mov    -0x8(%rbp),%rax
  8004201599:	48 83 e8 01          	sub    $0x1,%rax
  800420159d:	0f b6 00             	movzbl (%rax),%eax
  80042015a0:	0f be c0             	movsbl %al,%eax
  80042015a3:	89 c6                	mov    %eax,%esi
  80042015a5:	48 bf e6 70 21 04 80 	movabs $0x80042170e6,%rdi
  80042015ac:	00 00 00 
  80042015af:	b8 00 00 00 00       	mov    $0x0,%eax
  80042015b4:	48 ba 99 8d 20 04 80 	movabs $0x8004208d99,%rdx
  80042015bb:	00 00 00 
  80042015be:	ff d2                	callq  *%rdx
				tprbp = (uint64_t*)((char*)tprbp - 1);
  80042015c0:	48 83 6d f8 01       	subq   $0x1,-0x8(%rbp)
				break;
  80042015c5:	eb 5d                	jmp    8004201624 <printArgList+0x13d>
			case 4:
				cprintf("%016x",*((int*)tprbp -1));
  80042015c7:	48 8b 45 f8          	mov    -0x8(%rbp),%rax
  80042015cb:	48 83 e8 04          	sub    $0x4,%rax
  80042015cf:	8b 00                	mov    (%rax),%eax
  80042015d1:	89 c6                	mov    %eax,%esi
  80042015d3:	48 bf e6 70 21 04 80 	movabs $0x80042170e6,%rdi
  80042015da:	00 00 00 
  80042015dd:	b8 00 00 00 00       	mov    $0x0,%eax
  80042015e2:	48 ba 99 8d 20 04 80 	movabs $0x8004208d99,%rdx
  80042015e9:	00 00 00 
  80042015ec:	ff d2                	callq  *%rdx
				tprbp = (uint64_t*)((int*)tprbp - 1);
  80042015ee:	48 83 6d f8 04       	subq   $0x4,-0x8(%rbp)
				break;
  80042015f3:	eb 2f                	jmp    8004201624 <printArgList+0x13d>
			case 8:
				cprintf("%016x",*(tprbp -1));
  80042015f5:	48 8b 45 f8          	mov    -0x8(%rbp),%rax
  80042015f9:	48 83 e8 08          	sub    $0x8,%rax
  80042015fd:	48 8b 00             	mov    (%rax),%rax
  8004201600:	48 89 c6             	mov    %rax,%rsi
  8004201603:	48 bf e6 70 21 04 80 	movabs $0x80042170e6,%rdi
  800420160a:	00 00 00 
  800420160d:	b8 00 00 00 00       	mov    $0x0,%eax
  8004201612:	48 ba 99 8d 20 04 80 	movabs $0x8004208d99,%rdx
  8004201619:	00 00 00 
  800420161c:	ff d2                	callq  *%rdx
				tprbp = tprbp - 1;
  800420161e:	48 83 6d f8 08       	subq   $0x8,-0x8(%rbp)
				break;
  8004201623:	90                   	nop
			default:
				break;
		}
		i++;
  8004201624:	83 45 f0 01          	addl   $0x1,-0x10(%rbp)
		numberArg--;
  8004201628:	83 6d f4 01          	subl   $0x1,-0xc(%rbp)
	{
		cprintf("\n");
		return;
	}
	
	while(numberArg > 0)
  800420162c:	83 7d f4 00          	cmpl   $0x0,-0xc(%rbp)
  8004201630:	0f 8f 11 ff ff ff    	jg     8004201547 <printArgList+0x60>
				break;
		}
		i++;
		numberArg--;
	}
	cprintf("\n");
  8004201636:	48 bf e2 70 21 04 80 	movabs $0x80042170e2,%rdi
  800420163d:	00 00 00 
  8004201640:	b8 00 00 00 00       	mov    $0x0,%eax
  8004201645:	48 ba 99 8d 20 04 80 	movabs $0x8004208d99,%rdx
  800420164c:	00 00 00 
  800420164f:	ff d2                	callq  *%rdx
}
  8004201651:	c9                   	leaveq 
  8004201652:	c3                   	retq   

0000008004201653 <mon_backtrace>:

int
mon_backtrace(int argc, char **argv, struct Trapframe *tf)
{
  8004201653:	55                   	push   %rbp
  8004201654:	48 89 e5             	mov    %rsp,%rbp
  8004201657:	48 81 ec 20 05 00 00 	sub    $0x520,%rsp
  800420165e:	89 bd fc fa ff ff    	mov    %edi,-0x504(%rbp)
  8004201664:	48 89 b5 f0 fa ff ff 	mov    %rsi,-0x510(%rbp)
  800420166b:	48 89 95 e8 fa ff ff 	mov    %rdx,-0x518(%rbp)
	// Your code here.
	uint64_t rbp = 0x0;
  8004201672:	48 c7 45 f0 00 00 00 	movq   $0x0,-0x10(%rbp)
  8004201679:	00 
	uint64_t rip = 0x0;
  800420167a:	48 c7 45 e8 00 00 00 	movq   $0x0,-0x18(%rbp)
  8004201681:	00 
	uint64_t* prbp = NULL;
  8004201682:	48 c7 45 f8 00 00 00 	movq   $0x0,-0x8(%rbp)
  8004201689:	00 

	struct Ripdebuginfo info;

	cprintf("Stack backtrace:\n");
  800420168a:	48 bf ec 70 21 04 80 	movabs $0x80042170ec,%rdi
  8004201691:	00 00 00 
  8004201694:	b8 00 00 00 00       	mov    $0x0,%eax
  8004201699:	48 ba 99 8d 20 04 80 	movabs $0x8004208d99,%rdx
  80042016a0:	00 00 00 
  80042016a3:	ff d2                	callq  *%rdx

static __inline uint64_t
read_rbp(void)
{
        uint64_t rbp;
        __asm __volatile("movq %%rbp,%0" : "=r" (rbp)::"cc","memory");
  80042016a5:	48 89 e8             	mov    %rbp,%rax
  80042016a8:	48 89 45 e0          	mov    %rax,-0x20(%rbp)
        return rbp;
  80042016ac:	48 8b 45 e0          	mov    -0x20(%rbp),%rax
	rbp = read_rbp();
  80042016b0:	48 89 45 f0          	mov    %rax,-0x10(%rbp)
	read_rip(rip);
  80042016b4:	48 8d 05 00 00 00 00 	lea    0x0(%rip),%rax        # 80042016bb <mon_backtrace+0x68>
  80042016bb:	48 89 45 e8          	mov    %rax,-0x18(%rbp)
	if(rbp == 0x0 || rip == 0x0)
  80042016bf:	48 83 7d f0 00       	cmpq   $0x0,-0x10(%rbp)
  80042016c4:	74 07                	je     80042016cd <mon_backtrace+0x7a>
  80042016c6:	48 83 7d e8 00       	cmpq   $0x0,-0x18(%rbp)
  80042016cb:	75 25                	jne    80042016f2 <mon_backtrace+0x9f>
	{
		cprintf("Not able to show backtrace");
  80042016cd:	48 bf fe 70 21 04 80 	movabs $0x80042170fe,%rdi
  80042016d4:	00 00 00 
  80042016d7:	b8 00 00 00 00       	mov    $0x0,%eax
  80042016dc:	48 ba 99 8d 20 04 80 	movabs $0x8004208d99,%rdx
  80042016e3:	00 00 00 
  80042016e6:	ff d2                	callq  *%rdx
		return -1;
  80042016e8:	b8 ff ff ff ff       	mov    $0xffffffff,%eax
  80042016ed:	e9 2c 02 00 00       	jmpq   800420191e <mon_backtrace+0x2cb>
	}
	prbp = (uint64_t*)(rbp);
  80042016f2:	48 8b 45 f0          	mov    -0x10(%rbp),%rax
  80042016f6:	48 89 45 f8          	mov    %rax,-0x8(%rbp)

	cprintf("    rbp %016x  rip %016x\n", prbp, rip);
  80042016fa:	48 8b 55 e8          	mov    -0x18(%rbp),%rdx
  80042016fe:	48 8b 45 f8          	mov    -0x8(%rbp),%rax
  8004201702:	48 89 c6             	mov    %rax,%rsi
  8004201705:	48 bf 19 71 21 04 80 	movabs $0x8004217119,%rdi
  800420170c:	00 00 00 
  800420170f:	b8 00 00 00 00       	mov    $0x0,%eax
  8004201714:	48 b9 99 8d 20 04 80 	movabs $0x8004208d99,%rcx
  800420171b:	00 00 00 
  800420171e:	ff d1                	callq  *%rcx
	debuginfo_rip(rip ,&info);
  8004201720:	48 8d 95 00 fb ff ff 	lea    -0x500(%rbp),%rdx
  8004201727:	48 8b 45 e8          	mov    -0x18(%rbp),%rax
  800420172b:	48 89 d6             	mov    %rdx,%rsi
  800420172e:	48 89 c7             	mov    %rax,%rdi
  8004201731:	48 b8 0e e5 20 04 80 	movabs $0x800420e50e,%rax
  8004201738:	00 00 00 
  800420173b:	ff d0                	callq  *%rax
	
	cprintf("        %s:%d: ",info.rip_file, info.rip_line);
  800420173d:	8b 95 08 fb ff ff    	mov    -0x4f8(%rbp),%edx
  8004201743:	48 8b 85 00 fb ff ff 	mov    -0x500(%rbp),%rax
  800420174a:	48 89 c6             	mov    %rax,%rsi
  800420174d:	48 bf 33 71 21 04 80 	movabs $0x8004217133,%rdi
  8004201754:	00 00 00 
  8004201757:	b8 00 00 00 00       	mov    $0x0,%eax
  800420175c:	48 b9 99 8d 20 04 80 	movabs $0x8004208d99,%rcx
  8004201763:	00 00 00 
  8004201766:	ff d1                	callq  *%rcx
	cprintf("%.*s+%016x",info.rip_fn_namelen, info.rip_fn_name, (rip - info.rip_fn_addr));
  8004201768:	48 8b 85 20 fb ff ff 	mov    -0x4e0(%rbp),%rax
  800420176f:	48 8b 55 e8          	mov    -0x18(%rbp),%rdx
  8004201773:	48 89 d1             	mov    %rdx,%rcx
  8004201776:	48 29 c1             	sub    %rax,%rcx
  8004201779:	48 8b 95 10 fb ff ff 	mov    -0x4f0(%rbp),%rdx
  8004201780:	8b 85 18 fb ff ff    	mov    -0x4e8(%rbp),%eax
  8004201786:	89 c6                	mov    %eax,%esi
  8004201788:	48 bf 43 71 21 04 80 	movabs $0x8004217143,%rdi
  800420178f:	00 00 00 
  8004201792:	b8 00 00 00 00       	mov    $0x0,%eax
  8004201797:	49 b8 99 8d 20 04 80 	movabs $0x8004208d99,%r8
  800420179e:	00 00 00 
  80042017a1:	41 ff d0             	callq  *%r8
	cprintf(" args:%d", info.rip_fn_narg);
  80042017a4:	8b 85 28 fb ff ff    	mov    -0x4d8(%rbp),%eax
  80042017aa:	89 c6                	mov    %eax,%esi
  80042017ac:	48 bf 4e 71 21 04 80 	movabs $0x800421714e,%rdi
  80042017b3:	00 00 00 
  80042017b6:	b8 00 00 00 00       	mov    $0x0,%eax
  80042017bb:	48 ba 99 8d 20 04 80 	movabs $0x8004208d99,%rdx
  80042017c2:	00 00 00 
  80042017c5:	ff d2                	callq  *%rdx
	printArgList(prbp, &info);
  80042017c7:	48 8d 95 00 fb ff ff 	lea    -0x500(%rbp),%rdx
  80042017ce:	48 8b 45 f8          	mov    -0x8(%rbp),%rax
  80042017d2:	48 89 d6             	mov    %rdx,%rsi
  80042017d5:	48 89 c7             	mov    %rax,%rdi
  80042017d8:	48 b8 e7 14 20 04 80 	movabs $0x80042014e7,%rax
  80042017df:	00 00 00 
  80042017e2:	ff d0                	callq  *%rax

	while(prbp && *(prbp) != 0x0 && *(prbp+1) != 0x0)
  80042017e4:	e9 09 01 00 00       	jmpq   80042018f2 <mon_backtrace+0x29f>
	{
		cprintf("    rbp %016x  rip %016x\n",*(prbp),*((prbp) +1));
  80042017e9:	48 8b 45 f8          	mov    -0x8(%rbp),%rax
  80042017ed:	48 83 c0 08          	add    $0x8,%rax
  80042017f1:	48 8b 10             	mov    (%rax),%rdx
  80042017f4:	48 8b 45 f8          	mov    -0x8(%rbp),%rax
  80042017f8:	48 8b 00             	mov    (%rax),%rax
  80042017fb:	48 89 c6             	mov    %rax,%rsi
  80042017fe:	48 bf 19 71 21 04 80 	movabs $0x8004217119,%rdi
  8004201805:	00 00 00 
  8004201808:	b8 00 00 00 00       	mov    $0x0,%eax
  800420180d:	48 b9 99 8d 20 04 80 	movabs $0x8004208d99,%rcx
  8004201814:	00 00 00 
  8004201817:	ff d1                	callq  *%rcx
		debuginfo_rip(*(prbp+1) ,&info);
  8004201819:	48 8b 45 f8          	mov    -0x8(%rbp),%rax
  800420181d:	48 83 c0 08          	add    $0x8,%rax
  8004201821:	48 8b 00             	mov    (%rax),%rax
  8004201824:	48 8d 95 00 fb ff ff 	lea    -0x500(%rbp),%rdx
  800420182b:	48 89 d6             	mov    %rdx,%rsi
  800420182e:	48 89 c7             	mov    %rax,%rdi
  8004201831:	48 b8 0e e5 20 04 80 	movabs $0x800420e50e,%rax
  8004201838:	00 00 00 
  800420183b:	ff d0                	callq  *%rax

		cprintf("        %s:%d: ",info.rip_file, info.rip_line);
  800420183d:	8b 95 08 fb ff ff    	mov    -0x4f8(%rbp),%edx
  8004201843:	48 8b 85 00 fb ff ff 	mov    -0x500(%rbp),%rax
  800420184a:	48 89 c6             	mov    %rax,%rsi
  800420184d:	48 bf 33 71 21 04 80 	movabs $0x8004217133,%rdi
  8004201854:	00 00 00 
  8004201857:	b8 00 00 00 00       	mov    $0x0,%eax
  800420185c:	48 b9 99 8d 20 04 80 	movabs $0x8004208d99,%rcx
  8004201863:	00 00 00 
  8004201866:	ff d1                	callq  *%rcx
		cprintf("%.*s+%016x",info.rip_fn_namelen, info.rip_fn_name, (rip - info.rip_fn_addr));
  8004201868:	48 8b 85 20 fb ff ff 	mov    -0x4e0(%rbp),%rax
  800420186f:	48 8b 55 e8          	mov    -0x18(%rbp),%rdx
  8004201873:	48 89 d1             	mov    %rdx,%rcx
  8004201876:	48 29 c1             	sub    %rax,%rcx
  8004201879:	48 8b 95 10 fb ff ff 	mov    -0x4f0(%rbp),%rdx
  8004201880:	8b 85 18 fb ff ff    	mov    -0x4e8(%rbp),%eax
  8004201886:	89 c6                	mov    %eax,%esi
  8004201888:	48 bf 43 71 21 04 80 	movabs $0x8004217143,%rdi
  800420188f:	00 00 00 
  8004201892:	b8 00 00 00 00       	mov    $0x0,%eax
  8004201897:	49 b8 99 8d 20 04 80 	movabs $0x8004208d99,%r8
  800420189e:	00 00 00 
  80042018a1:	41 ff d0             	callq  *%r8
		cprintf(" args:%d", info.rip_fn_narg);
  80042018a4:	8b 85 28 fb ff ff    	mov    -0x4d8(%rbp),%eax
  80042018aa:	89 c6                	mov    %eax,%esi
  80042018ac:	48 bf 4e 71 21 04 80 	movabs $0x800421714e,%rdi
  80042018b3:	00 00 00 
  80042018b6:	b8 00 00 00 00       	mov    $0x0,%eax
  80042018bb:	48 ba 99 8d 20 04 80 	movabs $0x8004208d99,%rdx
  80042018c2:	00 00 00 
  80042018c5:	ff d2                	callq  *%rdx
		printArgList((uint64_t*)(*(prbp)), &info);
  80042018c7:	48 8b 45 f8          	mov    -0x8(%rbp),%rax
  80042018cb:	48 8b 00             	mov    (%rax),%rax
  80042018ce:	48 8d 95 00 fb ff ff 	lea    -0x500(%rbp),%rdx
  80042018d5:	48 89 d6             	mov    %rdx,%rsi
  80042018d8:	48 89 c7             	mov    %rax,%rdi
  80042018db:	48 b8 e7 14 20 04 80 	movabs $0x80042014e7,%rax
  80042018e2:	00 00 00 
  80042018e5:	ff d0                	callq  *%rax
		
		prbp = (uint64_t*)(*(prbp)); 
  80042018e7:	48 8b 45 f8          	mov    -0x8(%rbp),%rax
  80042018eb:	48 8b 00             	mov    (%rax),%rax
  80042018ee:	48 89 45 f8          	mov    %rax,-0x8(%rbp)
	cprintf("        %s:%d: ",info.rip_file, info.rip_line);
	cprintf("%.*s+%016x",info.rip_fn_namelen, info.rip_fn_name, (rip - info.rip_fn_addr));
	cprintf(" args:%d", info.rip_fn_narg);
	printArgList(prbp, &info);

	while(prbp && *(prbp) != 0x0 && *(prbp+1) != 0x0)
  80042018f2:	48 83 7d f8 00       	cmpq   $0x0,-0x8(%rbp)
  80042018f7:	74 20                	je     8004201919 <mon_backtrace+0x2c6>
  80042018f9:	48 8b 45 f8          	mov    -0x8(%rbp),%rax
  80042018fd:	48 8b 00             	mov    (%rax),%rax
  8004201900:	48 85 c0             	test   %rax,%rax
  8004201903:	74 14                	je     8004201919 <mon_backtrace+0x2c6>
  8004201905:	48 8b 45 f8          	mov    -0x8(%rbp),%rax
  8004201909:	48 83 c0 08          	add    $0x8,%rax
  800420190d:	48 8b 00             	mov    (%rax),%rax
  8004201910:	48 85 c0             	test   %rax,%rax
  8004201913:	0f 85 d0 fe ff ff    	jne    80042017e9 <mon_backtrace+0x196>
		cprintf(" args:%d", info.rip_fn_narg);
		printArgList((uint64_t*)(*(prbp)), &info);
		
		prbp = (uint64_t*)(*(prbp)); 
	}
	return 0;
  8004201919:	b8 00 00 00 00       	mov    $0x0,%eax
}
  800420191e:	c9                   	leaveq 
  800420191f:	c3                   	retq   

0000008004201920 <runcmd>:
#define WHITESPACE "\t\r\n "
#define MAXARGS 16

static int
runcmd(char *buf, struct Trapframe *tf)
{
  8004201920:	55                   	push   %rbp
  8004201921:	48 89 e5             	mov    %rsp,%rbp
  8004201924:	48 81 ec a0 00 00 00 	sub    $0xa0,%rsp
  800420192b:	48 89 bd 68 ff ff ff 	mov    %rdi,-0x98(%rbp)
  8004201932:	48 89 b5 60 ff ff ff 	mov    %rsi,-0xa0(%rbp)
	int argc;
	char *argv[MAXARGS];
	int i;

	// Parse the command buffer into whitespace-separated arguments
	argc = 0;
  8004201939:	c7 45 fc 00 00 00 00 	movl   $0x0,-0x4(%rbp)
	argv[argc] = 0;
  8004201940:	8b 45 fc             	mov    -0x4(%rbp),%eax
  8004201943:	48 98                	cltq   
  8004201945:	48 c7 84 c5 70 ff ff 	movq   $0x0,-0x90(%rbp,%rax,8)
  800420194c:	ff 00 00 00 00 
	while (1) {
		// gobble whitespace
		while (*buf && strchr(WHITESPACE, *buf))
  8004201951:	eb 15                	jmp    8004201968 <runcmd+0x48>
			*buf++ = 0;
  8004201953:	48 8b 85 68 ff ff ff 	mov    -0x98(%rbp),%rax
  800420195a:	48 8d 50 01          	lea    0x1(%rax),%rdx
  800420195e:	48 89 95 68 ff ff ff 	mov    %rdx,-0x98(%rbp)
  8004201965:	c6 00 00             	movb   $0x0,(%rax)
	// Parse the command buffer into whitespace-separated arguments
	argc = 0;
	argv[argc] = 0;
	while (1) {
		// gobble whitespace
		while (*buf && strchr(WHITESPACE, *buf))
  8004201968:	48 8b 85 68 ff ff ff 	mov    -0x98(%rbp),%rax
  800420196f:	0f b6 00             	movzbl (%rax),%eax
  8004201972:	84 c0                	test   %al,%al
  8004201974:	74 2a                	je     80042019a0 <runcmd+0x80>
  8004201976:	48 8b 85 68 ff ff ff 	mov    -0x98(%rbp),%rax
  800420197d:	0f b6 00             	movzbl (%rax),%eax
  8004201980:	0f be c0             	movsbl %al,%eax
  8004201983:	89 c6                	mov    %eax,%esi
  8004201985:	48 bf 57 71 21 04 80 	movabs $0x8004217157,%rdi
  800420198c:	00 00 00 
  800420198f:	48 b8 33 f8 20 04 80 	movabs $0x800420f833,%rax
  8004201996:	00 00 00 
  8004201999:	ff d0                	callq  *%rax
  800420199b:	48 85 c0             	test   %rax,%rax
  800420199e:	75 b3                	jne    8004201953 <runcmd+0x33>
			*buf++ = 0;
		if (*buf == 0)
  80042019a0:	48 8b 85 68 ff ff ff 	mov    -0x98(%rbp),%rax
  80042019a7:	0f b6 00             	movzbl (%rax),%eax
  80042019aa:	84 c0                	test   %al,%al
  80042019ac:	75 21                	jne    80042019cf <runcmd+0xaf>
			break;
  80042019ae:	90                   	nop
		}
		argv[argc++] = buf;
		while (*buf && !strchr(WHITESPACE, *buf))
			buf++;
	}
	argv[argc] = 0;
  80042019af:	8b 45 fc             	mov    -0x4(%rbp),%eax
  80042019b2:	48 98                	cltq   
  80042019b4:	48 c7 84 c5 70 ff ff 	movq   $0x0,-0x90(%rbp,%rax,8)
  80042019bb:	ff 00 00 00 00 

	// Lookup and invoke the command
	if (argc == 0)
  80042019c0:	83 7d fc 00          	cmpl   $0x0,-0x4(%rbp)
  80042019c4:	0f 85 a1 00 00 00    	jne    8004201a6b <runcmd+0x14b>
  80042019ca:	e9 92 00 00 00       	jmpq   8004201a61 <runcmd+0x141>
			*buf++ = 0;
		if (*buf == 0)
			break;

		// save and scan past next arg
		if (argc == MAXARGS-1) {
  80042019cf:	83 7d fc 0f          	cmpl   $0xf,-0x4(%rbp)
  80042019d3:	75 2a                	jne    80042019ff <runcmd+0xdf>
			cprintf("Too many arguments (max %d)\n", MAXARGS);
  80042019d5:	be 10 00 00 00       	mov    $0x10,%esi
  80042019da:	48 bf 5c 71 21 04 80 	movabs $0x800421715c,%rdi
  80042019e1:	00 00 00 
  80042019e4:	b8 00 00 00 00       	mov    $0x0,%eax
  80042019e9:	48 ba 99 8d 20 04 80 	movabs $0x8004208d99,%rdx
  80042019f0:	00 00 00 
  80042019f3:	ff d2                	callq  *%rdx
			return 0;
  80042019f5:	b8 00 00 00 00       	mov    $0x0,%eax
  80042019fa:	e9 30 01 00 00       	jmpq   8004201b2f <runcmd+0x20f>
		}
		argv[argc++] = buf;
  80042019ff:	8b 45 fc             	mov    -0x4(%rbp),%eax
  8004201a02:	8d 50 01             	lea    0x1(%rax),%edx
  8004201a05:	89 55 fc             	mov    %edx,-0x4(%rbp)
  8004201a08:	48 98                	cltq   
  8004201a0a:	48 8b 95 68 ff ff ff 	mov    -0x98(%rbp),%rdx
  8004201a11:	48 89 94 c5 70 ff ff 	mov    %rdx,-0x90(%rbp,%rax,8)
  8004201a18:	ff 
		while (*buf && !strchr(WHITESPACE, *buf))
  8004201a19:	eb 08                	jmp    8004201a23 <runcmd+0x103>
			buf++;
  8004201a1b:	48 83 85 68 ff ff ff 	addq   $0x1,-0x98(%rbp)
  8004201a22:	01 
		if (argc == MAXARGS-1) {
			cprintf("Too many arguments (max %d)\n", MAXARGS);
			return 0;
		}
		argv[argc++] = buf;
		while (*buf && !strchr(WHITESPACE, *buf))
  8004201a23:	48 8b 85 68 ff ff ff 	mov    -0x98(%rbp),%rax
  8004201a2a:	0f b6 00             	movzbl (%rax),%eax
  8004201a2d:	84 c0                	test   %al,%al
  8004201a2f:	74 2a                	je     8004201a5b <runcmd+0x13b>
  8004201a31:	48 8b 85 68 ff ff ff 	mov    -0x98(%rbp),%rax
  8004201a38:	0f b6 00             	movzbl (%rax),%eax
  8004201a3b:	0f be c0             	movsbl %al,%eax
  8004201a3e:	89 c6                	mov    %eax,%esi
  8004201a40:	48 bf 57 71 21 04 80 	movabs $0x8004217157,%rdi
  8004201a47:	00 00 00 
  8004201a4a:	48 b8 33 f8 20 04 80 	movabs $0x800420f833,%rax
  8004201a51:	00 00 00 
  8004201a54:	ff d0                	callq  *%rax
  8004201a56:	48 85 c0             	test   %rax,%rax
  8004201a59:	74 c0                	je     8004201a1b <runcmd+0xfb>
			buf++;
	}
  8004201a5b:	90                   	nop
	// Parse the command buffer into whitespace-separated arguments
	argc = 0;
	argv[argc] = 0;
	while (1) {
		// gobble whitespace
		while (*buf && strchr(WHITESPACE, *buf))
  8004201a5c:	e9 07 ff ff ff       	jmpq   8004201968 <runcmd+0x48>
	}
	argv[argc] = 0;

	// Lookup and invoke the command
	if (argc == 0)
		return 0;
  8004201a61:	b8 00 00 00 00       	mov    $0x0,%eax
  8004201a66:	e9 c4 00 00 00       	jmpq   8004201b2f <runcmd+0x20f>
	for (i = 0; i < NCOMMANDS; i++) {
  8004201a6b:	c7 45 f8 00 00 00 00 	movl   $0x0,-0x8(%rbp)
  8004201a72:	e9 82 00 00 00       	jmpq   8004201af9 <runcmd+0x1d9>
		if (strcmp(argv[0], commands[i].name) == 0)
  8004201a77:	48 b9 80 c5 22 04 80 	movabs $0x800422c580,%rcx
  8004201a7e:	00 00 00 
  8004201a81:	8b 45 f8             	mov    -0x8(%rbp),%eax
  8004201a84:	48 63 d0             	movslq %eax,%rdx
  8004201a87:	48 89 d0             	mov    %rdx,%rax
  8004201a8a:	48 01 c0             	add    %rax,%rax
  8004201a8d:	48 01 d0             	add    %rdx,%rax
  8004201a90:	48 c1 e0 03          	shl    $0x3,%rax
  8004201a94:	48 01 c8             	add    %rcx,%rax
  8004201a97:	48 8b 10             	mov    (%rax),%rdx
  8004201a9a:	48 8b 85 70 ff ff ff 	mov    -0x90(%rbp),%rax
  8004201aa1:	48 89 d6             	mov    %rdx,%rsi
  8004201aa4:	48 89 c7             	mov    %rax,%rdi
  8004201aa7:	48 b8 6f f7 20 04 80 	movabs $0x800420f76f,%rax
  8004201aae:	00 00 00 
  8004201ab1:	ff d0                	callq  *%rax
  8004201ab3:	85 c0                	test   %eax,%eax
  8004201ab5:	75 3e                	jne    8004201af5 <runcmd+0x1d5>
			return commands[i].func(argc, argv, tf);
  8004201ab7:	48 b9 80 c5 22 04 80 	movabs $0x800422c580,%rcx
  8004201abe:	00 00 00 
  8004201ac1:	8b 45 f8             	mov    -0x8(%rbp),%eax
  8004201ac4:	48 63 d0             	movslq %eax,%rdx
  8004201ac7:	48 89 d0             	mov    %rdx,%rax
  8004201aca:	48 01 c0             	add    %rax,%rax
  8004201acd:	48 01 d0             	add    %rdx,%rax
  8004201ad0:	48 c1 e0 03          	shl    $0x3,%rax
  8004201ad4:	48 01 c8             	add    %rcx,%rax
  8004201ad7:	48 83 c0 10          	add    $0x10,%rax
  8004201adb:	48 8b 00             	mov    (%rax),%rax
  8004201ade:	48 8b 95 60 ff ff ff 	mov    -0xa0(%rbp),%rdx
  8004201ae5:	48 8d b5 70 ff ff ff 	lea    -0x90(%rbp),%rsi
  8004201aec:	8b 4d fc             	mov    -0x4(%rbp),%ecx
  8004201aef:	89 cf                	mov    %ecx,%edi
  8004201af1:	ff d0                	callq  *%rax
  8004201af3:	eb 3a                	jmp    8004201b2f <runcmd+0x20f>
	argv[argc] = 0;

	// Lookup and invoke the command
	if (argc == 0)
		return 0;
	for (i = 0; i < NCOMMANDS; i++) {
  8004201af5:	83 45 f8 01          	addl   $0x1,-0x8(%rbp)
  8004201af9:	8b 45 f8             	mov    -0x8(%rbp),%eax
  8004201afc:	83 f8 02             	cmp    $0x2,%eax
  8004201aff:	0f 86 72 ff ff ff    	jbe    8004201a77 <runcmd+0x157>
		if (strcmp(argv[0], commands[i].name) == 0)
			return commands[i].func(argc, argv, tf);
	}
	cprintf("Unknown command '%s'\n", argv[0]);
  8004201b05:	48 8b 85 70 ff ff ff 	mov    -0x90(%rbp),%rax
  8004201b0c:	48 89 c6             	mov    %rax,%rsi
  8004201b0f:	48 bf 79 71 21 04 80 	movabs $0x8004217179,%rdi
  8004201b16:	00 00 00 
  8004201b19:	b8 00 00 00 00       	mov    $0x0,%eax
  8004201b1e:	48 ba 99 8d 20 04 80 	movabs $0x8004208d99,%rdx
  8004201b25:	00 00 00 
  8004201b28:	ff d2                	callq  *%rdx
	return 0;
  8004201b2a:	b8 00 00 00 00       	mov    $0x0,%eax
}
  8004201b2f:	c9                   	leaveq 
  8004201b30:	c3                   	retq   

0000008004201b31 <monitor>:

void
monitor(struct Trapframe *tf)
{
  8004201b31:	55                   	push   %rbp
  8004201b32:	48 89 e5             	mov    %rsp,%rbp
  8004201b35:	48 83 ec 20          	sub    $0x20,%rsp
  8004201b39:	48 89 7d e8          	mov    %rdi,-0x18(%rbp)
	char *buf;

	cprintf("Welcome to the JOS kernel monitor!\n");
  8004201b3d:	48 bf 90 71 21 04 80 	movabs $0x8004217190,%rdi
  8004201b44:	00 00 00 
  8004201b47:	b8 00 00 00 00       	mov    $0x0,%eax
  8004201b4c:	48 ba 99 8d 20 04 80 	movabs $0x8004208d99,%rdx
  8004201b53:	00 00 00 
  8004201b56:	ff d2                	callq  *%rdx
	cprintf("Type 'help' for a list of commands.\n");
  8004201b58:	48 bf b8 71 21 04 80 	movabs $0x80042171b8,%rdi
  8004201b5f:	00 00 00 
  8004201b62:	b8 00 00 00 00       	mov    $0x0,%eax
  8004201b67:	48 ba 99 8d 20 04 80 	movabs $0x8004208d99,%rdx
  8004201b6e:	00 00 00 
  8004201b71:	ff d2                	callq  *%rdx

	if (tf != NULL)
  8004201b73:	48 83 7d e8 00       	cmpq   $0x0,-0x18(%rbp)
  8004201b78:	74 13                	je     8004201b8d <monitor+0x5c>
		print_trapframe(tf);
  8004201b7a:	48 8b 45 e8          	mov    -0x18(%rbp),%rax
  8004201b7e:	48 89 c7             	mov    %rax,%rdi
  8004201b81:	48 b8 a2 bd 20 04 80 	movabs $0x800420bda2,%rax
  8004201b88:	00 00 00 
  8004201b8b:	ff d0                	callq  *%rax

	while (1) {
		buf = readline("K> ");
  8004201b8d:	48 bf dd 71 21 04 80 	movabs $0x80042171dd,%rdi
  8004201b94:	00 00 00 
  8004201b97:	48 b8 4c f4 20 04 80 	movabs $0x800420f44c,%rax
  8004201b9e:	00 00 00 
  8004201ba1:	ff d0                	callq  *%rax
  8004201ba3:	48 89 45 f8          	mov    %rax,-0x8(%rbp)
		if (buf != NULL)
  8004201ba7:	48 83 7d f8 00       	cmpq   $0x0,-0x8(%rbp)
  8004201bac:	74 20                	je     8004201bce <monitor+0x9d>
			if (runcmd(buf, tf) < 0)
  8004201bae:	48 8b 55 e8          	mov    -0x18(%rbp),%rdx
  8004201bb2:	48 8b 45 f8          	mov    -0x8(%rbp),%rax
  8004201bb6:	48 89 d6             	mov    %rdx,%rsi
  8004201bb9:	48 89 c7             	mov    %rax,%rdi
  8004201bbc:	48 b8 20 19 20 04 80 	movabs $0x8004201920,%rax
  8004201bc3:	00 00 00 
  8004201bc6:	ff d0                	callq  *%rax
  8004201bc8:	85 c0                	test   %eax,%eax
  8004201bca:	79 02                	jns    8004201bce <monitor+0x9d>
				break;
  8004201bcc:	eb 02                	jmp    8004201bd0 <monitor+0x9f>
	}
  8004201bce:	eb bd                	jmp    8004201b8d <monitor+0x5c>
}
  8004201bd0:	c9                   	leaveq 
  8004201bd1:	c3                   	retq   

0000008004201bd2 <page2ppn>:
int	user_mem_check(struct Env *env, const void *va, size_t len, int perm);
void	user_mem_assert(struct Env *env, const void *va, size_t len, int perm);

static inline ppn_t
page2ppn(struct PageInfo *pp)
{
  8004201bd2:	55                   	push   %rbp
  8004201bd3:	48 89 e5             	mov    %rsp,%rbp
  8004201bd6:	48 83 ec 08          	sub    $0x8,%rsp
  8004201bda:	48 89 7d f8          	mov    %rdi,-0x8(%rbp)
	return pp - pages;
  8004201bde:	48 8b 55 f8          	mov    -0x8(%rbp),%rdx
  8004201be2:	48 b8 b8 17 4a 04 80 	movabs $0x80044a17b8,%rax
  8004201be9:	00 00 00 
  8004201bec:	48 8b 00             	mov    (%rax),%rax
  8004201bef:	48 29 c2             	sub    %rax,%rdx
  8004201bf2:	48 89 d0             	mov    %rdx,%rax
  8004201bf5:	48 c1 f8 04          	sar    $0x4,%rax
}
  8004201bf9:	c9                   	leaveq 
  8004201bfa:	c3                   	retq   

0000008004201bfb <page2pa>:

static inline physaddr_t
page2pa(struct PageInfo *pp)
{
  8004201bfb:	55                   	push   %rbp
  8004201bfc:	48 89 e5             	mov    %rsp,%rbp
  8004201bff:	48 83 ec 08          	sub    $0x8,%rsp
  8004201c03:	48 89 7d f8          	mov    %rdi,-0x8(%rbp)
	return page2ppn(pp) << PGSHIFT;
  8004201c07:	48 8b 45 f8          	mov    -0x8(%rbp),%rax
  8004201c0b:	48 89 c7             	mov    %rax,%rdi
  8004201c0e:	48 b8 d2 1b 20 04 80 	movabs $0x8004201bd2,%rax
  8004201c15:	00 00 00 
  8004201c18:	ff d0                	callq  *%rax
  8004201c1a:	48 c1 e0 0c          	shl    $0xc,%rax
}
  8004201c1e:	c9                   	leaveq 
  8004201c1f:	c3                   	retq   

0000008004201c20 <pa2page>:

static inline struct PageInfo*
pa2page(physaddr_t pa)
{
  8004201c20:	55                   	push   %rbp
  8004201c21:	48 89 e5             	mov    %rsp,%rbp
  8004201c24:	48 83 ec 10          	sub    $0x10,%rsp
  8004201c28:	48 89 7d f8          	mov    %rdi,-0x8(%rbp)
	if (PPN(pa) >= npages)
  8004201c2c:	48 8b 45 f8          	mov    -0x8(%rbp),%rax
  8004201c30:	48 c1 e8 0c          	shr    $0xc,%rax
  8004201c34:	48 89 c2             	mov    %rax,%rdx
  8004201c37:	48 b8 b0 17 4a 04 80 	movabs $0x80044a17b0,%rax
  8004201c3e:	00 00 00 
  8004201c41:	48 8b 00             	mov    (%rax),%rax
  8004201c44:	48 39 c2             	cmp    %rax,%rdx
  8004201c47:	72 2a                	jb     8004201c73 <pa2page+0x53>
		panic("pa2page called with invalid pa");
  8004201c49:	48 ba e8 71 21 04 80 	movabs $0x80042171e8,%rdx
  8004201c50:	00 00 00 
  8004201c53:	be 54 00 00 00       	mov    $0x54,%esi
  8004201c58:	48 bf 07 72 21 04 80 	movabs $0x8004217207,%rdi
  8004201c5f:	00 00 00 
  8004201c62:	b8 00 00 00 00       	mov    $0x0,%eax
  8004201c67:	48 b9 26 05 20 04 80 	movabs $0x8004200526,%rcx
  8004201c6e:	00 00 00 
  8004201c71:	ff d1                	callq  *%rcx
	return &pages[PPN(pa)];
  8004201c73:	48 b8 b8 17 4a 04 80 	movabs $0x80044a17b8,%rax
  8004201c7a:	00 00 00 
  8004201c7d:	48 8b 00             	mov    (%rax),%rax
  8004201c80:	48 8b 55 f8          	mov    -0x8(%rbp),%rdx
  8004201c84:	48 c1 ea 0c          	shr    $0xc,%rdx
  8004201c88:	48 c1 e2 04          	shl    $0x4,%rdx
  8004201c8c:	48 01 d0             	add    %rdx,%rax
}
  8004201c8f:	c9                   	leaveq 
  8004201c90:	c3                   	retq   

0000008004201c91 <page2kva>:

static inline void*
page2kva(struct PageInfo *pp)
{
  8004201c91:	55                   	push   %rbp
  8004201c92:	48 89 e5             	mov    %rsp,%rbp
  8004201c95:	48 83 ec 20          	sub    $0x20,%rsp
  8004201c99:	48 89 7d e8          	mov    %rdi,-0x18(%rbp)
	return KADDR(page2pa(pp));
  8004201c9d:	48 8b 45 e8          	mov    -0x18(%rbp),%rax
  8004201ca1:	48 89 c7             	mov    %rax,%rdi
  8004201ca4:	48 b8 fb 1b 20 04 80 	movabs $0x8004201bfb,%rax
  8004201cab:	00 00 00 
  8004201cae:	ff d0                	callq  *%rax
  8004201cb0:	48 89 45 f8          	mov    %rax,-0x8(%rbp)
  8004201cb4:	48 8b 45 f8          	mov    -0x8(%rbp),%rax
  8004201cb8:	48 c1 e8 0c          	shr    $0xc,%rax
  8004201cbc:	89 45 f4             	mov    %eax,-0xc(%rbp)
  8004201cbf:	8b 55 f4             	mov    -0xc(%rbp),%edx
  8004201cc2:	48 b8 b0 17 4a 04 80 	movabs $0x80044a17b0,%rax
  8004201cc9:	00 00 00 
  8004201ccc:	48 8b 00             	mov    (%rax),%rax
  8004201ccf:	48 39 c2             	cmp    %rax,%rdx
  8004201cd2:	72 32                	jb     8004201d06 <page2kva+0x75>
  8004201cd4:	48 8b 45 f8          	mov    -0x8(%rbp),%rax
  8004201cd8:	48 89 c1             	mov    %rax,%rcx
  8004201cdb:	48 ba 18 72 21 04 80 	movabs $0x8004217218,%rdx
  8004201ce2:	00 00 00 
  8004201ce5:	be 5b 00 00 00       	mov    $0x5b,%esi
  8004201cea:	48 bf 07 72 21 04 80 	movabs $0x8004217207,%rdi
  8004201cf1:	00 00 00 
  8004201cf4:	b8 00 00 00 00       	mov    $0x0,%eax
  8004201cf9:	49 b8 26 05 20 04 80 	movabs $0x8004200526,%r8
  8004201d00:	00 00 00 
  8004201d03:	41 ff d0             	callq  *%r8
  8004201d06:	48 ba 00 00 00 04 80 	movabs $0x8004000000,%rdx
  8004201d0d:	00 00 00 
  8004201d10:	48 8b 45 f8          	mov    -0x8(%rbp),%rax
  8004201d14:	48 01 d0             	add    %rdx,%rax
}
  8004201d17:	c9                   	leaveq 
  8004201d18:	c3                   	retq   

0000008004201d19 <restrictive_type>:
   uint32_t length_low;
   uint32_t length_high;
   uint32_t type;
 } memory_map_t;

uint32_t restrictive_type(uint32_t t1, uint32_t t2) {
  8004201d19:	55                   	push   %rbp
  8004201d1a:	48 89 e5             	mov    %rsp,%rbp
  8004201d1d:	48 83 ec 08          	sub    $0x8,%rsp
  8004201d21:	89 7d fc             	mov    %edi,-0x4(%rbp)
  8004201d24:	89 75 f8             	mov    %esi,-0x8(%rbp)
  if(t1==MB_TYPE_BAD || t2==MB_TYPE_BAD)
  8004201d27:	83 7d fc 05          	cmpl   $0x5,-0x4(%rbp)
  8004201d2b:	74 06                	je     8004201d33 <restrictive_type+0x1a>
  8004201d2d:	83 7d f8 05          	cmpl   $0x5,-0x8(%rbp)
  8004201d31:	75 07                	jne    8004201d3a <restrictive_type+0x21>
    return MB_TYPE_BAD;
  8004201d33:	b8 05 00 00 00       	mov    $0x5,%eax
  8004201d38:	eb 3e                	jmp    8004201d78 <restrictive_type+0x5f>
  else if(t1==MB_TYPE_ACPI_NVS || t2==MB_TYPE_ACPI_NVS)
  8004201d3a:	83 7d fc 04          	cmpl   $0x4,-0x4(%rbp)
  8004201d3e:	74 06                	je     8004201d46 <restrictive_type+0x2d>
  8004201d40:	83 7d f8 04          	cmpl   $0x4,-0x8(%rbp)
  8004201d44:	75 07                	jne    8004201d4d <restrictive_type+0x34>
    return MB_TYPE_ACPI_NVS;
  8004201d46:	b8 04 00 00 00       	mov    $0x4,%eax
  8004201d4b:	eb 2b                	jmp    8004201d78 <restrictive_type+0x5f>
  else if(t1==MB_TYPE_RESERVED || t2==MB_TYPE_RESERVED)
  8004201d4d:	83 7d fc 02          	cmpl   $0x2,-0x4(%rbp)
  8004201d51:	74 06                	je     8004201d59 <restrictive_type+0x40>
  8004201d53:	83 7d f8 02          	cmpl   $0x2,-0x8(%rbp)
  8004201d57:	75 07                	jne    8004201d60 <restrictive_type+0x47>
    return MB_TYPE_RESERVED;
  8004201d59:	b8 02 00 00 00       	mov    $0x2,%eax
  8004201d5e:	eb 18                	jmp    8004201d78 <restrictive_type+0x5f>
  else if(t1==MB_TYPE_ACPI_RECLM || t2==MB_TYPE_ACPI_RECLM)
  8004201d60:	83 7d fc 03          	cmpl   $0x3,-0x4(%rbp)
  8004201d64:	74 06                	je     8004201d6c <restrictive_type+0x53>
  8004201d66:	83 7d f8 03          	cmpl   $0x3,-0x8(%rbp)
  8004201d6a:	75 07                	jne    8004201d73 <restrictive_type+0x5a>
    return MB_TYPE_ACPI_RECLM;
  8004201d6c:	b8 03 00 00 00       	mov    $0x3,%eax
  8004201d71:	eb 05                	jmp    8004201d78 <restrictive_type+0x5f>

  return MB_TYPE_USABLE;
  8004201d73:	b8 01 00 00 00       	mov    $0x1,%eax
}
  8004201d78:	c9                   	leaveq 
  8004201d79:	c3                   	retq   

0000008004201d7a <nvram_read>:
// Detect machine's physical memory setup.
// --------------------------------------------------------------

static int
nvram_read(int r)
{
  8004201d7a:	55                   	push   %rbp
  8004201d7b:	48 89 e5             	mov    %rsp,%rbp
  8004201d7e:	53                   	push   %rbx
  8004201d7f:	48 83 ec 18          	sub    $0x18,%rsp
  8004201d83:	89 7d ec             	mov    %edi,-0x14(%rbp)
	return mc146818_read(r) | (mc146818_read(r + 1) << 8);
  8004201d86:	8b 45 ec             	mov    -0x14(%rbp),%eax
  8004201d89:	89 c7                	mov    %eax,%edi
  8004201d8b:	48 b8 4d 8a 20 04 80 	movabs $0x8004208a4d,%rax
  8004201d92:	00 00 00 
  8004201d95:	ff d0                	callq  *%rax
  8004201d97:	89 c3                	mov    %eax,%ebx
  8004201d99:	8b 45 ec             	mov    -0x14(%rbp),%eax
  8004201d9c:	83 c0 01             	add    $0x1,%eax
  8004201d9f:	89 c7                	mov    %eax,%edi
  8004201da1:	48 b8 4d 8a 20 04 80 	movabs $0x8004208a4d,%rax
  8004201da8:	00 00 00 
  8004201dab:	ff d0                	callq  *%rax
  8004201dad:	c1 e0 08             	shl    $0x8,%eax
  8004201db0:	09 d8                	or     %ebx,%eax
}
  8004201db2:	48 83 c4 18          	add    $0x18,%rsp
  8004201db6:	5b                   	pop    %rbx
  8004201db7:	5d                   	pop    %rbp
  8004201db8:	c3                   	retq   

0000008004201db9 <multiboot_read>:

static void
multiboot_read(multiboot_info_t* mbinfo, size_t* basemem, size_t* extmem) {
  8004201db9:	55                   	push   %rbp
  8004201dba:	48 89 e5             	mov    %rsp,%rbp
  8004201dbd:	41 54                	push   %r12
  8004201dbf:	53                   	push   %rbx
  8004201dc0:	48 81 ec b0 00 00 00 	sub    $0xb0,%rsp
  8004201dc7:	48 89 bd 58 ff ff ff 	mov    %rdi,-0xa8(%rbp)
  8004201dce:	48 89 b5 50 ff ff ff 	mov    %rsi,-0xb0(%rbp)
  8004201dd5:	48 89 95 48 ff ff ff 	mov    %rdx,-0xb8(%rbp)
  8004201ddc:	48 89 e0             	mov    %rsp,%rax
  8004201ddf:	49 89 c4             	mov    %rax,%r12
	int i;

	memory_map_t* mmap_base = (memory_map_t*)(uintptr_t)mbinfo->mmap_addr;
  8004201de2:	48 8b 85 58 ff ff ff 	mov    -0xa8(%rbp),%rax
  8004201de9:	8b 40 30             	mov    0x30(%rax),%eax
  8004201dec:	89 c0                	mov    %eax,%eax
  8004201dee:	48 89 45 d8          	mov    %rax,-0x28(%rbp)
 	memory_map_t* mmap_list[mbinfo->mmap_length/ (sizeof(memory_map_t))];
  8004201df2:	48 8b 85 58 ff ff ff 	mov    -0xa8(%rbp),%rax
  8004201df9:	8b 40 2c             	mov    0x2c(%rax),%eax
  8004201dfc:	ba ab aa aa aa       	mov    $0xaaaaaaab,%edx
  8004201e01:	f7 e2                	mul    %edx
  8004201e03:	89 d0                	mov    %edx,%eax
  8004201e05:	c1 e8 04             	shr    $0x4,%eax
  8004201e08:	89 c0                	mov    %eax,%eax
  8004201e0a:	48 89 c2             	mov    %rax,%rdx
  8004201e0d:	48 83 ea 01          	sub    $0x1,%rdx
  8004201e11:	48 89 55 d0          	mov    %rdx,-0x30(%rbp)
  8004201e15:	49 89 c0             	mov    %rax,%r8
  8004201e18:	41 b9 00 00 00 00    	mov    $0x0,%r9d
  8004201e1e:	48 89 c1             	mov    %rax,%rcx
  8004201e21:	bb 00 00 00 00       	mov    $0x0,%ebx
  8004201e26:	48 c1 e0 03          	shl    $0x3,%rax
  8004201e2a:	48 8d 50 07          	lea    0x7(%rax),%rdx
  8004201e2e:	b8 10 00 00 00       	mov    $0x10,%eax
  8004201e33:	48 83 e8 01          	sub    $0x1,%rax
  8004201e37:	48 01 d0             	add    %rdx,%rax
  8004201e3a:	bb 10 00 00 00       	mov    $0x10,%ebx
  8004201e3f:	ba 00 00 00 00       	mov    $0x0,%edx
  8004201e44:	48 f7 f3             	div    %rbx
  8004201e47:	48 6b c0 10          	imul   $0x10,%rax,%rax
  8004201e4b:	48 29 c4             	sub    %rax,%rsp
  8004201e4e:	48 89 e0             	mov    %rsp,%rax
  8004201e51:	48 83 c0 07          	add    $0x7,%rax
  8004201e55:	48 c1 e8 03          	shr    $0x3,%rax
  8004201e59:	48 c1 e0 03          	shl    $0x3,%rax
  8004201e5d:	48 89 45 c8          	mov    %rax,-0x38(%rbp)

	cprintf("\ne820 MEMORY MAP\n");
  8004201e61:	48 bf 3b 72 21 04 80 	movabs $0x800421723b,%rdi
  8004201e68:	00 00 00 
  8004201e6b:	b8 00 00 00 00       	mov    $0x0,%eax
  8004201e70:	48 ba 99 8d 20 04 80 	movabs $0x8004208d99,%rdx
  8004201e77:	00 00 00 
  8004201e7a:	ff d2                	callq  *%rdx
	for(i = 0; i < (mbinfo->mmap_length / (sizeof(memory_map_t))); i++) {
  8004201e7c:	c7 45 ec 00 00 00 00 	movl   $0x0,-0x14(%rbp)
  8004201e83:	e9 6c 01 00 00       	jmpq   8004201ff4 <multiboot_read+0x23b>
		memory_map_t* mmap = &mmap_base[i];
  8004201e88:	8b 45 ec             	mov    -0x14(%rbp),%eax
  8004201e8b:	48 63 d0             	movslq %eax,%rdx
  8004201e8e:	48 89 d0             	mov    %rdx,%rax
  8004201e91:	48 01 c0             	add    %rax,%rax
  8004201e94:	48 01 d0             	add    %rdx,%rax
  8004201e97:	48 c1 e0 03          	shl    $0x3,%rax
  8004201e9b:	48 89 c2             	mov    %rax,%rdx
  8004201e9e:	48 8b 45 d8          	mov    -0x28(%rbp),%rax
  8004201ea2:	48 01 d0             	add    %rdx,%rax
  8004201ea5:	48 89 45 c0          	mov    %rax,-0x40(%rbp)

		uint64_t addr = APPEND_HILO(mmap->base_addr_high, mmap->base_addr_low);
  8004201ea9:	48 8b 45 c0          	mov    -0x40(%rbp),%rax
  8004201ead:	8b 40 08             	mov    0x8(%rax),%eax
  8004201eb0:	89 c0                	mov    %eax,%eax
  8004201eb2:	48 c1 e0 20          	shl    $0x20,%rax
  8004201eb6:	48 89 c2             	mov    %rax,%rdx
  8004201eb9:	48 8b 45 c0          	mov    -0x40(%rbp),%rax
  8004201ebd:	8b 40 04             	mov    0x4(%rax),%eax
  8004201ec0:	89 c0                	mov    %eax,%eax
  8004201ec2:	48 01 d0             	add    %rdx,%rax
  8004201ec5:	48 89 45 b8          	mov    %rax,-0x48(%rbp)
		uint64_t len = APPEND_HILO(mmap->length_high, mmap->length_low);
  8004201ec9:	48 8b 45 c0          	mov    -0x40(%rbp),%rax
  8004201ecd:	8b 40 10             	mov    0x10(%rax),%eax
  8004201ed0:	89 c0                	mov    %eax,%eax
  8004201ed2:	48 c1 e0 20          	shl    $0x20,%rax
  8004201ed6:	48 89 c2             	mov    %rax,%rdx
  8004201ed9:	48 8b 45 c0          	mov    -0x40(%rbp),%rax
  8004201edd:	8b 40 0c             	mov    0xc(%rax),%eax
  8004201ee0:	89 c0                	mov    %eax,%eax
  8004201ee2:	48 01 d0             	add    %rdx,%rax
  8004201ee5:	48 89 45 b0          	mov    %rax,-0x50(%rbp)
        
		cprintf("size: %d, address: 0x%016x, length: 0x%016x, type: %x\n", mmap->size, 
  8004201ee9:	48 8b 45 c0          	mov    -0x40(%rbp),%rax
  8004201eed:	8b 70 14             	mov    0x14(%rax),%esi
  8004201ef0:	48 8b 45 c0          	mov    -0x40(%rbp),%rax
  8004201ef4:	8b 00                	mov    (%rax),%eax
  8004201ef6:	48 8b 4d b0          	mov    -0x50(%rbp),%rcx
  8004201efa:	48 8b 55 b8          	mov    -0x48(%rbp),%rdx
  8004201efe:	41 89 f0             	mov    %esi,%r8d
  8004201f01:	89 c6                	mov    %eax,%esi
  8004201f03:	48 bf 50 72 21 04 80 	movabs $0x8004217250,%rdi
  8004201f0a:	00 00 00 
  8004201f0d:	b8 00 00 00 00       	mov    $0x0,%eax
  8004201f12:	49 b9 99 8d 20 04 80 	movabs $0x8004208d99,%r9
  8004201f19:	00 00 00 
  8004201f1c:	41 ff d1             	callq  *%r9
			addr, len, mmap->type);

		if(mmap->type > 5 || mmap->type < 1)
  8004201f1f:	48 8b 45 c0          	mov    -0x40(%rbp),%rax
  8004201f23:	8b 40 14             	mov    0x14(%rax),%eax
  8004201f26:	83 f8 05             	cmp    $0x5,%eax
  8004201f29:	77 0b                	ja     8004201f36 <multiboot_read+0x17d>
  8004201f2b:	48 8b 45 c0          	mov    -0x40(%rbp),%rax
  8004201f2f:	8b 40 14             	mov    0x14(%rax),%eax
  8004201f32:	85 c0                	test   %eax,%eax
  8004201f34:	75 0b                	jne    8004201f41 <multiboot_read+0x188>
			mmap->type = MB_TYPE_RESERVED;
  8004201f36:	48 8b 45 c0          	mov    -0x40(%rbp),%rax
  8004201f3a:	c7 40 14 02 00 00 00 	movl   $0x2,0x14(%rax)
       
		//Insert into the sorted list
		int j = 0;
  8004201f41:	c7 45 e8 00 00 00 00 	movl   $0x0,-0x18(%rbp)
		for(;j<i;j++) {
  8004201f48:	e9 85 00 00 00       	jmpq   8004201fd2 <multiboot_read+0x219>
			memory_map_t* this = mmap_list[j];
  8004201f4d:	48 8b 45 c8          	mov    -0x38(%rbp),%rax
  8004201f51:	8b 55 e8             	mov    -0x18(%rbp),%edx
  8004201f54:	48 63 d2             	movslq %edx,%rdx
  8004201f57:	48 8b 04 d0          	mov    (%rax,%rdx,8),%rax
  8004201f5b:	48 89 45 a8          	mov    %rax,-0x58(%rbp)
			uint64_t this_addr = APPEND_HILO(this->base_addr_high, this->base_addr_low);
  8004201f5f:	48 8b 45 a8          	mov    -0x58(%rbp),%rax
  8004201f63:	8b 40 08             	mov    0x8(%rax),%eax
  8004201f66:	89 c0                	mov    %eax,%eax
  8004201f68:	48 c1 e0 20          	shl    $0x20,%rax
  8004201f6c:	48 89 c2             	mov    %rax,%rdx
  8004201f6f:	48 8b 45 a8          	mov    -0x58(%rbp),%rax
  8004201f73:	8b 40 04             	mov    0x4(%rax),%eax
  8004201f76:	89 c0                	mov    %eax,%eax
  8004201f78:	48 01 d0             	add    %rdx,%rax
  8004201f7b:	48 89 45 a0          	mov    %rax,-0x60(%rbp)
			if(this_addr > addr) {
  8004201f7f:	48 8b 45 a0          	mov    -0x60(%rbp),%rax
  8004201f83:	48 3b 45 b8          	cmp    -0x48(%rbp),%rax
  8004201f87:	76 45                	jbe    8004201fce <multiboot_read+0x215>
				int last = i+1;
  8004201f89:	8b 45 ec             	mov    -0x14(%rbp),%eax
  8004201f8c:	83 c0 01             	add    $0x1,%eax
  8004201f8f:	89 45 e4             	mov    %eax,-0x1c(%rbp)
				while(last != j) {
  8004201f92:	eb 30                	jmp    8004201fc4 <multiboot_read+0x20b>
					*(mmap_list + last) = *(mmap_list + last - 1);
  8004201f94:	48 8b 45 c8          	mov    -0x38(%rbp),%rax
  8004201f98:	8b 55 e4             	mov    -0x1c(%rbp),%edx
  8004201f9b:	48 63 d2             	movslq %edx,%rdx
  8004201f9e:	48 c1 e2 03          	shl    $0x3,%rdx
  8004201fa2:	48 01 c2             	add    %rax,%rdx
  8004201fa5:	48 8b 45 c8          	mov    -0x38(%rbp),%rax
  8004201fa9:	8b 4d e4             	mov    -0x1c(%rbp),%ecx
  8004201fac:	48 63 c9             	movslq %ecx,%rcx
  8004201faf:	48 c1 e1 03          	shl    $0x3,%rcx
  8004201fb3:	48 83 e9 08          	sub    $0x8,%rcx
  8004201fb7:	48 01 c8             	add    %rcx,%rax
  8004201fba:	48 8b 00             	mov    (%rax),%rax
  8004201fbd:	48 89 02             	mov    %rax,(%rdx)
					last--;
  8004201fc0:	83 6d e4 01          	subl   $0x1,-0x1c(%rbp)
		for(;j<i;j++) {
			memory_map_t* this = mmap_list[j];
			uint64_t this_addr = APPEND_HILO(this->base_addr_high, this->base_addr_low);
			if(this_addr > addr) {
				int last = i+1;
				while(last != j) {
  8004201fc4:	8b 45 e4             	mov    -0x1c(%rbp),%eax
  8004201fc7:	3b 45 e8             	cmp    -0x18(%rbp),%eax
  8004201fca:	75 c8                	jne    8004201f94 <multiboot_read+0x1db>
					*(mmap_list + last) = *(mmap_list + last - 1);
					last--;
				}
				break; 
  8004201fcc:	eb 10                	jmp    8004201fde <multiboot_read+0x225>
		if(mmap->type > 5 || mmap->type < 1)
			mmap->type = MB_TYPE_RESERVED;
       
		//Insert into the sorted list
		int j = 0;
		for(;j<i;j++) {
  8004201fce:	83 45 e8 01          	addl   $0x1,-0x18(%rbp)
  8004201fd2:	8b 45 e8             	mov    -0x18(%rbp),%eax
  8004201fd5:	3b 45 ec             	cmp    -0x14(%rbp),%eax
  8004201fd8:	0f 8c 6f ff ff ff    	jl     8004201f4d <multiboot_read+0x194>
					last--;
				}
				break; 
			}
		}
		mmap_list[j] = mmap;  
  8004201fde:	48 8b 45 c8          	mov    -0x38(%rbp),%rax
  8004201fe2:	8b 55 e8             	mov    -0x18(%rbp),%edx
  8004201fe5:	48 63 d2             	movslq %edx,%rdx
  8004201fe8:	48 8b 4d c0          	mov    -0x40(%rbp),%rcx
  8004201fec:	48 89 0c d0          	mov    %rcx,(%rax,%rdx,8)

	memory_map_t* mmap_base = (memory_map_t*)(uintptr_t)mbinfo->mmap_addr;
 	memory_map_t* mmap_list[mbinfo->mmap_length/ (sizeof(memory_map_t))];

	cprintf("\ne820 MEMORY MAP\n");
	for(i = 0; i < (mbinfo->mmap_length / (sizeof(memory_map_t))); i++) {
  8004201ff0:	83 45 ec 01          	addl   $0x1,-0x14(%rbp)
  8004201ff4:	8b 45 ec             	mov    -0x14(%rbp),%eax
  8004201ff7:	48 63 c8             	movslq %eax,%rcx
  8004201ffa:	48 8b 85 58 ff ff ff 	mov    -0xa8(%rbp),%rax
  8004202001:	8b 40 2c             	mov    0x2c(%rax),%eax
  8004202004:	ba ab aa aa aa       	mov    $0xaaaaaaab,%edx
  8004202009:	f7 e2                	mul    %edx
  800420200b:	89 d0                	mov    %edx,%eax
  800420200d:	c1 e8 04             	shr    $0x4,%eax
  8004202010:	89 c0                	mov    %eax,%eax
  8004202012:	48 39 c1             	cmp    %rax,%rcx
  8004202015:	0f 82 6d fe ff ff    	jb     8004201e88 <multiboot_read+0xcf>
				break; 
			}
		}
		mmap_list[j] = mmap;  
	}
	cprintf("\n");
  800420201b:	48 bf 87 72 21 04 80 	movabs $0x8004217287,%rdi
  8004202022:	00 00 00 
  8004202025:	b8 00 00 00 00       	mov    $0x0,%eax
  800420202a:	48 ba 99 8d 20 04 80 	movabs $0x8004208d99,%rdx
  8004202031:	00 00 00 
  8004202034:	ff d2                	callq  *%rdx
    
	// Sanitize the list
	for(i=1;i < (mbinfo->mmap_length / (sizeof(memory_map_t))); i++) {
  8004202036:	c7 45 ec 01 00 00 00 	movl   $0x1,-0x14(%rbp)
  800420203d:	e9 93 01 00 00       	jmpq   80042021d5 <multiboot_read+0x41c>
		memory_map_t* prev = mmap_list[i-1];
  8004202042:	8b 45 ec             	mov    -0x14(%rbp),%eax
  8004202045:	8d 50 ff             	lea    -0x1(%rax),%edx
  8004202048:	48 8b 45 c8          	mov    -0x38(%rbp),%rax
  800420204c:	48 63 d2             	movslq %edx,%rdx
  800420204f:	48 8b 04 d0          	mov    (%rax,%rdx,8),%rax
  8004202053:	48 89 45 98          	mov    %rax,-0x68(%rbp)
		memory_map_t* this = mmap_list[i];
  8004202057:	48 8b 45 c8          	mov    -0x38(%rbp),%rax
  800420205b:	8b 55 ec             	mov    -0x14(%rbp),%edx
  800420205e:	48 63 d2             	movslq %edx,%rdx
  8004202061:	48 8b 04 d0          	mov    (%rax,%rdx,8),%rax
  8004202065:	48 89 45 90          	mov    %rax,-0x70(%rbp)

		uint64_t this_addr = APPEND_HILO(this->base_addr_high, this->base_addr_low);
  8004202069:	48 8b 45 90          	mov    -0x70(%rbp),%rax
  800420206d:	8b 40 08             	mov    0x8(%rax),%eax
  8004202070:	89 c0                	mov    %eax,%eax
  8004202072:	48 c1 e0 20          	shl    $0x20,%rax
  8004202076:	48 89 c2             	mov    %rax,%rdx
  8004202079:	48 8b 45 90          	mov    -0x70(%rbp),%rax
  800420207d:	8b 40 04             	mov    0x4(%rax),%eax
  8004202080:	89 c0                	mov    %eax,%eax
  8004202082:	48 01 d0             	add    %rdx,%rax
  8004202085:	48 89 45 88          	mov    %rax,-0x78(%rbp)
		uint64_t prev_addr = APPEND_HILO(prev->base_addr_high, prev->base_addr_low);
  8004202089:	48 8b 45 98          	mov    -0x68(%rbp),%rax
  800420208d:	8b 40 08             	mov    0x8(%rax),%eax
  8004202090:	89 c0                	mov    %eax,%eax
  8004202092:	48 c1 e0 20          	shl    $0x20,%rax
  8004202096:	48 89 c2             	mov    %rax,%rdx
  8004202099:	48 8b 45 98          	mov    -0x68(%rbp),%rax
  800420209d:	8b 40 04             	mov    0x4(%rax),%eax
  80042020a0:	89 c0                	mov    %eax,%eax
  80042020a2:	48 01 d0             	add    %rdx,%rax
  80042020a5:	48 89 45 80          	mov    %rax,-0x80(%rbp)
		uint64_t prev_length = APPEND_HILO(prev->length_high, prev->length_low);
  80042020a9:	48 8b 45 98          	mov    -0x68(%rbp),%rax
  80042020ad:	8b 40 10             	mov    0x10(%rax),%eax
  80042020b0:	89 c0                	mov    %eax,%eax
  80042020b2:	48 c1 e0 20          	shl    $0x20,%rax
  80042020b6:	48 89 c2             	mov    %rax,%rdx
  80042020b9:	48 8b 45 98          	mov    -0x68(%rbp),%rax
  80042020bd:	8b 40 0c             	mov    0xc(%rax),%eax
  80042020c0:	89 c0                	mov    %eax,%eax
  80042020c2:	48 01 d0             	add    %rdx,%rax
  80042020c5:	48 89 85 78 ff ff ff 	mov    %rax,-0x88(%rbp)
		uint64_t this_length = APPEND_HILO(this->length_high, this->length_low);
  80042020cc:	48 8b 45 90          	mov    -0x70(%rbp),%rax
  80042020d0:	8b 40 10             	mov    0x10(%rax),%eax
  80042020d3:	89 c0                	mov    %eax,%eax
  80042020d5:	48 c1 e0 20          	shl    $0x20,%rax
  80042020d9:	48 89 c2             	mov    %rax,%rdx
  80042020dc:	48 8b 45 90          	mov    -0x70(%rbp),%rax
  80042020e0:	8b 40 0c             	mov    0xc(%rax),%eax
  80042020e3:	89 c0                	mov    %eax,%eax
  80042020e5:	48 01 d0             	add    %rdx,%rax
  80042020e8:	48 89 85 70 ff ff ff 	mov    %rax,-0x90(%rbp)

		// Merge adjacent regions with same type
		if(prev_addr + prev_length == this_addr && prev->type == this->type) {
  80042020ef:	48 8b 85 78 ff ff ff 	mov    -0x88(%rbp),%rax
  80042020f6:	48 8b 55 80          	mov    -0x80(%rbp),%rdx
  80042020fa:	48 01 d0             	add    %rdx,%rax
  80042020fd:	48 3b 45 88          	cmp    -0x78(%rbp),%rax
  8004202101:	75 7c                	jne    800420217f <multiboot_read+0x3c6>
  8004202103:	48 8b 45 98          	mov    -0x68(%rbp),%rax
  8004202107:	8b 50 14             	mov    0x14(%rax),%edx
  800420210a:	48 8b 45 90          	mov    -0x70(%rbp),%rax
  800420210e:	8b 40 14             	mov    0x14(%rax),%eax
  8004202111:	39 c2                	cmp    %eax,%edx
  8004202113:	75 6a                	jne    800420217f <multiboot_read+0x3c6>
			this->length_low = (uint32_t)prev_length + this_length;
  8004202115:	48 8b 85 78 ff ff ff 	mov    -0x88(%rbp),%rax
  800420211c:	89 c2                	mov    %eax,%edx
  800420211e:	48 8b 85 70 ff ff ff 	mov    -0x90(%rbp),%rax
  8004202125:	01 c2                	add    %eax,%edx
  8004202127:	48 8b 45 90          	mov    -0x70(%rbp),%rax
  800420212b:	89 50 0c             	mov    %edx,0xc(%rax)
			this->length_high = (uint32_t)((prev_length + this_length)>>32);
  800420212e:	48 8b 85 70 ff ff ff 	mov    -0x90(%rbp),%rax
  8004202135:	48 8b 95 78 ff ff ff 	mov    -0x88(%rbp),%rdx
  800420213c:	48 01 d0             	add    %rdx,%rax
  800420213f:	48 c1 e8 20          	shr    $0x20,%rax
  8004202143:	89 c2                	mov    %eax,%edx
  8004202145:	48 8b 45 90          	mov    -0x70(%rbp),%rax
  8004202149:	89 50 10             	mov    %edx,0x10(%rax)
			this->base_addr_low = prev->base_addr_low;
  800420214c:	48 8b 45 98          	mov    -0x68(%rbp),%rax
  8004202150:	8b 50 04             	mov    0x4(%rax),%edx
  8004202153:	48 8b 45 90          	mov    -0x70(%rbp),%rax
  8004202157:	89 50 04             	mov    %edx,0x4(%rax)
			this->base_addr_high = prev->base_addr_high;
  800420215a:	48 8b 45 98          	mov    -0x68(%rbp),%rax
  800420215e:	8b 50 08             	mov    0x8(%rax),%edx
  8004202161:	48 8b 45 90          	mov    -0x70(%rbp),%rax
  8004202165:	89 50 08             	mov    %edx,0x8(%rax)
			mmap_list[i-1] = NULL;
  8004202168:	8b 45 ec             	mov    -0x14(%rbp),%eax
  800420216b:	8d 50 ff             	lea    -0x1(%rax),%edx
  800420216e:	48 8b 45 c8          	mov    -0x38(%rbp),%rax
  8004202172:	48 63 d2             	movslq %edx,%rdx
  8004202175:	48 c7 04 d0 00 00 00 	movq   $0x0,(%rax,%rdx,8)
  800420217c:	00 
  800420217d:	eb 52                	jmp    80042021d1 <multiboot_read+0x418>
		} else if(prev_addr + prev_length > this_addr) {
  800420217f:	48 8b 85 78 ff ff ff 	mov    -0x88(%rbp),%rax
  8004202186:	48 8b 55 80          	mov    -0x80(%rbp),%rdx
  800420218a:	48 01 d0             	add    %rdx,%rax
  800420218d:	48 3b 45 88          	cmp    -0x78(%rbp),%rax
  8004202191:	76 3e                	jbe    80042021d1 <multiboot_read+0x418>
			//Overlapping regions
			uint32_t type = restrictive_type(prev->type, this->type);
  8004202193:	48 8b 45 90          	mov    -0x70(%rbp),%rax
  8004202197:	8b 50 14             	mov    0x14(%rax),%edx
  800420219a:	48 8b 45 98          	mov    -0x68(%rbp),%rax
  800420219e:	8b 40 14             	mov    0x14(%rax),%eax
  80042021a1:	89 d6                	mov    %edx,%esi
  80042021a3:	89 c7                	mov    %eax,%edi
  80042021a5:	48 b8 19 1d 20 04 80 	movabs $0x8004201d19,%rax
  80042021ac:	00 00 00 
  80042021af:	ff d0                	callq  *%rax
  80042021b1:	89 85 6c ff ff ff    	mov    %eax,-0x94(%rbp)
			prev->type = type;
  80042021b7:	48 8b 45 98          	mov    -0x68(%rbp),%rax
  80042021bb:	8b 95 6c ff ff ff    	mov    -0x94(%rbp),%edx
  80042021c1:	89 50 14             	mov    %edx,0x14(%rax)
			this->type = type;
  80042021c4:	48 8b 45 90          	mov    -0x70(%rbp),%rax
  80042021c8:	8b 95 6c ff ff ff    	mov    -0x94(%rbp),%edx
  80042021ce:	89 50 14             	mov    %edx,0x14(%rax)
		mmap_list[j] = mmap;  
	}
	cprintf("\n");
    
	// Sanitize the list
	for(i=1;i < (mbinfo->mmap_length / (sizeof(memory_map_t))); i++) {
  80042021d1:	83 45 ec 01          	addl   $0x1,-0x14(%rbp)
  80042021d5:	8b 45 ec             	mov    -0x14(%rbp),%eax
  80042021d8:	48 63 c8             	movslq %eax,%rcx
  80042021db:	48 8b 85 58 ff ff ff 	mov    -0xa8(%rbp),%rax
  80042021e2:	8b 40 2c             	mov    0x2c(%rax),%eax
  80042021e5:	ba ab aa aa aa       	mov    $0xaaaaaaab,%edx
  80042021ea:	f7 e2                	mul    %edx
  80042021ec:	89 d0                	mov    %edx,%eax
  80042021ee:	c1 e8 04             	shr    $0x4,%eax
  80042021f1:	89 c0                	mov    %eax,%eax
  80042021f3:	48 39 c1             	cmp    %rax,%rcx
  80042021f6:	0f 82 46 fe ff ff    	jb     8004202042 <multiboot_read+0x289>
			prev->type = type;
			this->type = type;
		}
	}

	for(i=0;i < (mbinfo->mmap_length / (sizeof(memory_map_t))); i++) {
  80042021fc:	c7 45 ec 00 00 00 00 	movl   $0x0,-0x14(%rbp)
  8004202203:	e9 dc 00 00 00       	jmpq   80042022e4 <multiboot_read+0x52b>
		memory_map_t* mmap = mmap_list[i];
  8004202208:	48 8b 45 c8          	mov    -0x38(%rbp),%rax
  800420220c:	8b 55 ec             	mov    -0x14(%rbp),%edx
  800420220f:	48 63 d2             	movslq %edx,%rdx
  8004202212:	48 8b 04 d0          	mov    (%rax,%rdx,8),%rax
  8004202216:	48 89 85 60 ff ff ff 	mov    %rax,-0xa0(%rbp)
		if(mmap) {
  800420221d:	48 83 bd 60 ff ff ff 	cmpq   $0x0,-0xa0(%rbp)
  8004202224:	00 
  8004202225:	0f 84 b5 00 00 00    	je     80042022e0 <multiboot_read+0x527>
			if(mmap->type == MB_TYPE_USABLE || mmap->type == MB_TYPE_ACPI_RECLM) {
  800420222b:	48 8b 85 60 ff ff ff 	mov    -0xa0(%rbp),%rax
  8004202232:	8b 40 14             	mov    0x14(%rax),%eax
  8004202235:	83 f8 01             	cmp    $0x1,%eax
  8004202238:	74 13                	je     800420224d <multiboot_read+0x494>
  800420223a:	48 8b 85 60 ff ff ff 	mov    -0xa0(%rbp),%rax
  8004202241:	8b 40 14             	mov    0x14(%rax),%eax
  8004202244:	83 f8 03             	cmp    $0x3,%eax
  8004202247:	0f 85 93 00 00 00    	jne    80042022e0 <multiboot_read+0x527>
				if(mmap->base_addr_low < 0x100000 && mmap->base_addr_high == 0)
  800420224d:	48 8b 85 60 ff ff ff 	mov    -0xa0(%rbp),%rax
  8004202254:	8b 40 04             	mov    0x4(%rax),%eax
  8004202257:	3d ff ff 0f 00       	cmp    $0xfffff,%eax
  800420225c:	77 49                	ja     80042022a7 <multiboot_read+0x4ee>
  800420225e:	48 8b 85 60 ff ff ff 	mov    -0xa0(%rbp),%rax
  8004202265:	8b 40 08             	mov    0x8(%rax),%eax
  8004202268:	85 c0                	test   %eax,%eax
  800420226a:	75 3b                	jne    80042022a7 <multiboot_read+0x4ee>
					*basemem += APPEND_HILO(mmap->length_high, mmap->length_low);
  800420226c:	48 8b 85 50 ff ff ff 	mov    -0xb0(%rbp),%rax
  8004202273:	48 8b 10             	mov    (%rax),%rdx
  8004202276:	48 8b 85 60 ff ff ff 	mov    -0xa0(%rbp),%rax
  800420227d:	8b 40 10             	mov    0x10(%rax),%eax
  8004202280:	89 c0                	mov    %eax,%eax
  8004202282:	48 c1 e0 20          	shl    $0x20,%rax
  8004202286:	48 89 c1             	mov    %rax,%rcx
  8004202289:	48 8b 85 60 ff ff ff 	mov    -0xa0(%rbp),%rax
  8004202290:	8b 40 0c             	mov    0xc(%rax),%eax
  8004202293:	89 c0                	mov    %eax,%eax
  8004202295:	48 01 c8             	add    %rcx,%rax
  8004202298:	48 01 c2             	add    %rax,%rdx
  800420229b:	48 8b 85 50 ff ff ff 	mov    -0xb0(%rbp),%rax
  80042022a2:	48 89 10             	mov    %rdx,(%rax)
  80042022a5:	eb 39                	jmp    80042022e0 <multiboot_read+0x527>
				else
					*extmem += APPEND_HILO(mmap->length_high, mmap->length_low);
  80042022a7:	48 8b 85 48 ff ff ff 	mov    -0xb8(%rbp),%rax
  80042022ae:	48 8b 10             	mov    (%rax),%rdx
  80042022b1:	48 8b 85 60 ff ff ff 	mov    -0xa0(%rbp),%rax
  80042022b8:	8b 40 10             	mov    0x10(%rax),%eax
  80042022bb:	89 c0                	mov    %eax,%eax
  80042022bd:	48 c1 e0 20          	shl    $0x20,%rax
  80042022c1:	48 89 c1             	mov    %rax,%rcx
  80042022c4:	48 8b 85 60 ff ff ff 	mov    -0xa0(%rbp),%rax
  80042022cb:	8b 40 0c             	mov    0xc(%rax),%eax
  80042022ce:	89 c0                	mov    %eax,%eax
  80042022d0:	48 01 c8             	add    %rcx,%rax
  80042022d3:	48 01 c2             	add    %rax,%rdx
  80042022d6:	48 8b 85 48 ff ff ff 	mov    -0xb8(%rbp),%rax
  80042022dd:	48 89 10             	mov    %rdx,(%rax)
			prev->type = type;
			this->type = type;
		}
	}

	for(i=0;i < (mbinfo->mmap_length / (sizeof(memory_map_t))); i++) {
  80042022e0:	83 45 ec 01          	addl   $0x1,-0x14(%rbp)
  80042022e4:	8b 45 ec             	mov    -0x14(%rbp),%eax
  80042022e7:	48 63 c8             	movslq %eax,%rcx
  80042022ea:	48 8b 85 58 ff ff ff 	mov    -0xa8(%rbp),%rax
  80042022f1:	8b 40 2c             	mov    0x2c(%rax),%eax
  80042022f4:	ba ab aa aa aa       	mov    $0xaaaaaaab,%edx
  80042022f9:	f7 e2                	mul    %edx
  80042022fb:	89 d0                	mov    %edx,%eax
  80042022fd:	c1 e8 04             	shr    $0x4,%eax
  8004202300:	89 c0                	mov    %eax,%eax
  8004202302:	48 39 c1             	cmp    %rax,%rcx
  8004202305:	0f 82 fd fe ff ff    	jb     8004202208 <multiboot_read+0x44f>
  800420230b:	4c 89 e4             	mov    %r12,%rsp
				else
					*extmem += APPEND_HILO(mmap->length_high, mmap->length_low);
			}
		}
	}
}
  800420230e:	48 8d 65 f0          	lea    -0x10(%rbp),%rsp
  8004202312:	5b                   	pop    %rbx
  8004202313:	41 5c                	pop    %r12
  8004202315:	5d                   	pop    %rbp
  8004202316:	c3                   	retq   

0000008004202317 <i386_detect_memory>:

static void
i386_detect_memory(void)
{
  8004202317:	55                   	push   %rbp
  8004202318:	48 89 e5             	mov    %rsp,%rbp
  800420231b:	48 83 ec 50          	sub    $0x50,%rsp
	size_t npages_extmem;
	size_t basemem = 0;
  800420231f:	48 c7 45 c0 00 00 00 	movq   $0x0,-0x40(%rbp)
  8004202326:	00 
	size_t extmem = 0;
  8004202327:	48 c7 45 b8 00 00 00 	movq   $0x0,-0x48(%rbp)
  800420232e:	00 

	// Check if the bootloader passed us a multiboot structure
	extern char multiboot_info[];
	uintptr_t* mbp = (uintptr_t*)multiboot_info;
  800420232f:	48 b8 00 70 10 00 00 	movabs $0x107000,%rax
  8004202336:	00 00 00 
  8004202339:	48 89 45 f0          	mov    %rax,-0x10(%rbp)
	multiboot_info_t * mbinfo = (multiboot_info_t*)*mbp;
  800420233d:	48 8b 45 f0          	mov    -0x10(%rbp),%rax
  8004202341:	48 8b 00             	mov    (%rax),%rax
  8004202344:	48 89 45 e8          	mov    %rax,-0x18(%rbp)
	
	if(mbinfo && (mbinfo->flags & MB_FLAG_MMAP)) {
  8004202348:	48 83 7d e8 00       	cmpq   $0x0,-0x18(%rbp)
  800420234d:	74 2d                	je     800420237c <i386_detect_memory+0x65>
  800420234f:	48 8b 45 e8          	mov    -0x18(%rbp),%rax
  8004202353:	8b 00                	mov    (%rax),%eax
  8004202355:	83 e0 40             	and    $0x40,%eax
  8004202358:	85 c0                	test   %eax,%eax
  800420235a:	74 20                	je     800420237c <i386_detect_memory+0x65>
		multiboot_read(mbinfo, &basemem, &extmem);
  800420235c:	48 8d 55 b8          	lea    -0x48(%rbp),%rdx
  8004202360:	48 8d 4d c0          	lea    -0x40(%rbp),%rcx
  8004202364:	48 8b 45 e8          	mov    -0x18(%rbp),%rax
  8004202368:	48 89 ce             	mov    %rcx,%rsi
  800420236b:	48 89 c7             	mov    %rax,%rdi
  800420236e:	48 b8 b9 1d 20 04 80 	movabs $0x8004201db9,%rax
  8004202375:	00 00 00 
  8004202378:	ff d0                	callq  *%rax
  800420237a:	eb 34                	jmp    80042023b0 <i386_detect_memory+0x99>
	} else {
		basemem = (nvram_read(NVRAM_BASELO) * 1024);
  800420237c:	bf 15 00 00 00       	mov    $0x15,%edi
  8004202381:	48 b8 7a 1d 20 04 80 	movabs $0x8004201d7a,%rax
  8004202388:	00 00 00 
  800420238b:	ff d0                	callq  *%rax
  800420238d:	c1 e0 0a             	shl    $0xa,%eax
  8004202390:	48 98                	cltq   
  8004202392:	48 89 45 c0          	mov    %rax,-0x40(%rbp)
		extmem = (nvram_read(NVRAM_EXTLO) * 1024);
  8004202396:	bf 17 00 00 00       	mov    $0x17,%edi
  800420239b:	48 b8 7a 1d 20 04 80 	movabs $0x8004201d7a,%rax
  80042023a2:	00 00 00 
  80042023a5:	ff d0                	callq  *%rax
  80042023a7:	c1 e0 0a             	shl    $0xa,%eax
  80042023aa:	48 98                	cltq   
  80042023ac:	48 89 45 b8          	mov    %rax,-0x48(%rbp)
	}
    
	assert(basemem);
  80042023b0:	48 8b 45 c0          	mov    -0x40(%rbp),%rax
  80042023b4:	48 85 c0             	test   %rax,%rax
  80042023b7:	75 35                	jne    80042023ee <i386_detect_memory+0xd7>
  80042023b9:	48 b9 89 72 21 04 80 	movabs $0x8004217289,%rcx
  80042023c0:	00 00 00 
  80042023c3:	48 ba 91 72 21 04 80 	movabs $0x8004217291,%rdx
  80042023ca:	00 00 00 
  80042023cd:	be 89 00 00 00       	mov    $0x89,%esi
  80042023d2:	48 bf a6 72 21 04 80 	movabs $0x80042172a6,%rdi
  80042023d9:	00 00 00 
  80042023dc:	b8 00 00 00 00       	mov    $0x0,%eax
  80042023e1:	49 b8 26 05 20 04 80 	movabs $0x8004200526,%r8
  80042023e8:	00 00 00 
  80042023eb:	41 ff d0             	callq  *%r8

	npages_basemem = basemem / PGSIZE;
  80042023ee:	48 8b 45 c0          	mov    -0x40(%rbp),%rax
  80042023f2:	48 c1 e8 0c          	shr    $0xc,%rax
  80042023f6:	48 89 c2             	mov    %rax,%rdx
  80042023f9:	48 b8 30 02 4a 04 80 	movabs $0x80044a0230,%rax
  8004202400:	00 00 00 
  8004202403:	48 89 10             	mov    %rdx,(%rax)
	npages_extmem = extmem / PGSIZE;
  8004202406:	48 8b 45 b8          	mov    -0x48(%rbp),%rax
  800420240a:	48 c1 e8 0c          	shr    $0xc,%rax
  800420240e:	48 89 45 f8          	mov    %rax,-0x8(%rbp)
	
	if(nvram_read(NVRAM_EXTLO) == 0xffff) {
  8004202412:	bf 17 00 00 00       	mov    $0x17,%edi
  8004202417:	48 b8 7a 1d 20 04 80 	movabs $0x8004201d7a,%rax
  800420241e:	00 00 00 
  8004202421:	ff d0                	callq  *%rax
  8004202423:	3d ff ff 00 00       	cmp    $0xffff,%eax
  8004202428:	75 2c                	jne    8004202456 <i386_detect_memory+0x13f>
		// EXTMEM > 16M in blocks of 64k
		size_t pextmem = nvram_read(NVRAM_EXTGT16LO) * (64 * 1024);
  800420242a:	bf 34 00 00 00       	mov    $0x34,%edi
  800420242f:	48 b8 7a 1d 20 04 80 	movabs $0x8004201d7a,%rax
  8004202436:	00 00 00 
  8004202439:	ff d0                	callq  *%rax
  800420243b:	c1 e0 10             	shl    $0x10,%eax
  800420243e:	48 98                	cltq   
  8004202440:	48 89 45 e0          	mov    %rax,-0x20(%rbp)
		npages_extmem = ((16 * 1024 * 1024) + pextmem - (1 * 1024 * 1024)) / PGSIZE;
  8004202444:	48 8b 45 e0          	mov    -0x20(%rbp),%rax
  8004202448:	48 05 00 00 f0 00    	add    $0xf00000,%rax
  800420244e:	48 c1 e8 0c          	shr    $0xc,%rax
  8004202452:	48 89 45 f8          	mov    %rax,-0x8(%rbp)
	}
	
	// Calculate the number of physical pages available in both base
	// and extended memory.
	if (npages_extmem)
  8004202456:	48 83 7d f8 00       	cmpq   $0x0,-0x8(%rbp)
  800420245b:	74 1a                	je     8004202477 <i386_detect_memory+0x160>
		npages = (EXTPHYSMEM / PGSIZE) + npages_extmem;
  800420245d:	48 8b 45 f8          	mov    -0x8(%rbp),%rax
  8004202461:	48 8d 90 00 01 00 00 	lea    0x100(%rax),%rdx
  8004202468:	48 b8 b0 17 4a 04 80 	movabs $0x80044a17b0,%rax
  800420246f:	00 00 00 
  8004202472:	48 89 10             	mov    %rdx,(%rax)
  8004202475:	eb 1a                	jmp    8004202491 <i386_detect_memory+0x17a>
	else
		npages = npages_basemem;
  8004202477:	48 b8 30 02 4a 04 80 	movabs $0x80044a0230,%rax
  800420247e:	00 00 00 
  8004202481:	48 8b 10             	mov    (%rax),%rdx
  8004202484:	48 b8 b0 17 4a 04 80 	movabs $0x80044a17b0,%rax
  800420248b:	00 00 00 
  800420248e:	48 89 10             	mov    %rdx,(%rax)

	cprintf("Physical memory: %uM available, base = %uK, extended = %uK, npages = %d\n",
  8004202491:	48 b8 b0 17 4a 04 80 	movabs $0x80044a17b0,%rax
  8004202498:	00 00 00 
  800420249b:	48 8b 30             	mov    (%rax),%rsi
		npages * PGSIZE / (1024 * 1024),
		npages_basemem * PGSIZE / 1024,
		npages_extmem * PGSIZE / 1024,
  800420249e:	48 8b 45 f8          	mov    -0x8(%rbp),%rax
  80042024a2:	48 c1 e0 0c          	shl    $0xc,%rax
	if (npages_extmem)
		npages = (EXTPHYSMEM / PGSIZE) + npages_extmem;
	else
		npages = npages_basemem;

	cprintf("Physical memory: %uM available, base = %uK, extended = %uK, npages = %d\n",
  80042024a6:	48 c1 e8 0a          	shr    $0xa,%rax
  80042024aa:	48 89 c1             	mov    %rax,%rcx
		npages * PGSIZE / (1024 * 1024),
		npages_basemem * PGSIZE / 1024,
  80042024ad:	48 b8 30 02 4a 04 80 	movabs $0x80044a0230,%rax
  80042024b4:	00 00 00 
  80042024b7:	48 8b 00             	mov    (%rax),%rax
  80042024ba:	48 c1 e0 0c          	shl    $0xc,%rax
	if (npages_extmem)
		npages = (EXTPHYSMEM / PGSIZE) + npages_extmem;
	else
		npages = npages_basemem;

	cprintf("Physical memory: %uM available, base = %uK, extended = %uK, npages = %d\n",
  80042024be:	48 c1 e8 0a          	shr    $0xa,%rax
  80042024c2:	48 89 c2             	mov    %rax,%rdx
		npages * PGSIZE / (1024 * 1024),
  80042024c5:	48 b8 b0 17 4a 04 80 	movabs $0x80044a17b0,%rax
  80042024cc:	00 00 00 
  80042024cf:	48 8b 00             	mov    (%rax),%rax
  80042024d2:	48 c1 e0 0c          	shl    $0xc,%rax
	if (npages_extmem)
		npages = (EXTPHYSMEM / PGSIZE) + npages_extmem;
	else
		npages = npages_basemem;

	cprintf("Physical memory: %uM available, base = %uK, extended = %uK, npages = %d\n",
  80042024d6:	48 c1 e8 14          	shr    $0x14,%rax
  80042024da:	49 89 f0             	mov    %rsi,%r8
  80042024dd:	48 89 c6             	mov    %rax,%rsi
  80042024e0:	48 bf b8 72 21 04 80 	movabs $0x80042172b8,%rdi
  80042024e7:	00 00 00 
  80042024ea:	b8 00 00 00 00       	mov    $0x0,%eax
  80042024ef:	49 b9 99 8d 20 04 80 	movabs $0x8004208d99,%r9
  80042024f6:	00 00 00 
  80042024f9:	41 ff d1             	callq  *%r9
	//JOS 64 pages are limited by the size of both the UPAGES
	//  virtual address space, and the range from KERNBASE to UVPT.
	//
	// NB: qemu seems to have a bug that crashes the host system on 13.10 if you try to 
	//     max out memory.
	uint64_t upages_max = (ULIM - UPAGES) / sizeof(struct PageInfo);
  80042024fc:	48 c7 45 d8 00 00 32 	movq   $0x320000,-0x28(%rbp)
  8004202503:	00 
	uint64_t kern_mem_max = (UVPT - KERNBASE) / PGSIZE;
  8004202504:	48 c7 45 d0 00 c0 ff 	movq   $0x7ffc000,-0x30(%rbp)
  800420250b:	07 
	cprintf("Pages limited to %llu by upage address range (%uMB), Pages limited to %llu by remapped phys mem (%uMB)\n", 
		upages_max, ((upages_max * PGSIZE) / (1024 * 1024)),
		kern_mem_max, kern_mem_max * PGSIZE / (1024 * 1024));
  800420250c:	48 8b 45 d0          	mov    -0x30(%rbp),%rax
  8004202510:	48 c1 e0 0c          	shl    $0xc,%rax
	//
	// NB: qemu seems to have a bug that crashes the host system on 13.10 if you try to 
	//     max out memory.
	uint64_t upages_max = (ULIM - UPAGES) / sizeof(struct PageInfo);
	uint64_t kern_mem_max = (UVPT - KERNBASE) / PGSIZE;
	cprintf("Pages limited to %llu by upage address range (%uMB), Pages limited to %llu by remapped phys mem (%uMB)\n", 
  8004202514:	48 c1 e8 14          	shr    $0x14,%rax
  8004202518:	48 89 c1             	mov    %rax,%rcx
		upages_max, ((upages_max * PGSIZE) / (1024 * 1024)),
  800420251b:	48 8b 45 d8          	mov    -0x28(%rbp),%rax
  800420251f:	48 c1 e0 0c          	shl    $0xc,%rax
	//
	// NB: qemu seems to have a bug that crashes the host system on 13.10 if you try to 
	//     max out memory.
	uint64_t upages_max = (ULIM - UPAGES) / sizeof(struct PageInfo);
	uint64_t kern_mem_max = (UVPT - KERNBASE) / PGSIZE;
	cprintf("Pages limited to %llu by upage address range (%uMB), Pages limited to %llu by remapped phys mem (%uMB)\n", 
  8004202523:	48 c1 e8 14          	shr    $0x14,%rax
  8004202527:	48 89 c6             	mov    %rax,%rsi
  800420252a:	48 8b 55 d0          	mov    -0x30(%rbp),%rdx
  800420252e:	48 8b 45 d8          	mov    -0x28(%rbp),%rax
  8004202532:	49 89 c8             	mov    %rcx,%r8
  8004202535:	48 89 d1             	mov    %rdx,%rcx
  8004202538:	48 89 f2             	mov    %rsi,%rdx
  800420253b:	48 89 c6             	mov    %rax,%rsi
  800420253e:	48 bf 08 73 21 04 80 	movabs $0x8004217308,%rdi
  8004202545:	00 00 00 
  8004202548:	b8 00 00 00 00       	mov    $0x0,%eax
  800420254d:	49 b9 99 8d 20 04 80 	movabs $0x8004208d99,%r9
  8004202554:	00 00 00 
  8004202557:	41 ff d1             	callq  *%r9
		upages_max, ((upages_max * PGSIZE) / (1024 * 1024)),
		kern_mem_max, kern_mem_max * PGSIZE / (1024 * 1024));
	uint64_t max_npages = upages_max < kern_mem_max ? upages_max : kern_mem_max;
  800420255a:	48 8b 45 d8          	mov    -0x28(%rbp),%rax
  800420255e:	48 39 45 d0          	cmp    %rax,-0x30(%rbp)
  8004202562:	48 0f 46 45 d0       	cmovbe -0x30(%rbp),%rax
  8004202567:	48 89 45 c8          	mov    %rax,-0x38(%rbp)

	if(npages > max_npages) {
  800420256b:	48 b8 b0 17 4a 04 80 	movabs $0x80044a17b0,%rax
  8004202572:	00 00 00 
  8004202575:	48 8b 00             	mov    (%rax),%rax
  8004202578:	48 3b 45 c8          	cmp    -0x38(%rbp),%rax
  800420257c:	76 3a                	jbe    80042025b8 <i386_detect_memory+0x2a1>
		npages = max_npages - 1024;
  800420257e:	48 8b 45 c8          	mov    -0x38(%rbp),%rax
  8004202582:	48 8d 90 00 fc ff ff 	lea    -0x400(%rax),%rdx
  8004202589:	48 b8 b0 17 4a 04 80 	movabs $0x80044a17b0,%rax
  8004202590:	00 00 00 
  8004202593:	48 89 10             	mov    %rdx,(%rax)
		cprintf("Using only %uK of the available memory.\n", max_npages);
  8004202596:	48 8b 45 c8          	mov    -0x38(%rbp),%rax
  800420259a:	48 89 c6             	mov    %rax,%rsi
  800420259d:	48 bf 70 73 21 04 80 	movabs $0x8004217370,%rdi
  80042025a4:	00 00 00 
  80042025a7:	b8 00 00 00 00       	mov    $0x0,%eax
  80042025ac:	48 ba 99 8d 20 04 80 	movabs $0x8004208d99,%rdx
  80042025b3:	00 00 00 
  80042025b6:	ff d2                	callq  *%rdx
	}
}
  80042025b8:	c9                   	leaveq 
  80042025b9:	c3                   	retq   

00000080042025ba <boot_alloc>:
// If we're out of memory, boot_alloc should panic.
// This function may ONLY be used during initialization,
// before the page_free_list list has been set up.
static void *
boot_alloc(uint32_t n)
{
  80042025ba:	55                   	push   %rbp
  80042025bb:	48 89 e5             	mov    %rsp,%rbp
  80042025be:	48 83 ec 40          	sub    $0x40,%rsp
  80042025c2:	89 7d cc             	mov    %edi,-0x34(%rbp)
	// Initialize nextfree if this is the first time.
	// 'end' is a magic symbol automatically generated by the linker,
	// which points to the end of the kernel's bss segment:
	// the first virtual address that the linker did *not* assign
	// to any kernel code or global variables.
	if (!nextfree) {
  80042025c5:	48 b8 48 02 4a 04 80 	movabs $0x80044a0248,%rax
  80042025cc:	00 00 00 
  80042025cf:	48 8b 00             	mov    (%rax),%rax
  80042025d2:	48 85 c0             	test   %rax,%rax
  80042025d5:	75 4e                	jne    8004202625 <boot_alloc+0x6b>
		extern uintptr_t end_debug;
		nextfree = ROUNDUP((char *) end_debug, PGSIZE);
  80042025d7:	48 c7 45 f8 00 10 00 	movq   $0x1000,-0x8(%rbp)
  80042025de:	00 
  80042025df:	48 b8 88 17 4a 04 80 	movabs $0x80044a1788,%rax
  80042025e6:	00 00 00 
  80042025e9:	48 8b 10             	mov    (%rax),%rdx
  80042025ec:	48 8b 45 f8          	mov    -0x8(%rbp),%rax
  80042025f0:	48 01 d0             	add    %rdx,%rax
  80042025f3:	48 83 e8 01          	sub    $0x1,%rax
  80042025f7:	48 89 45 f0          	mov    %rax,-0x10(%rbp)
  80042025fb:	48 8b 45 f0          	mov    -0x10(%rbp),%rax
  80042025ff:	ba 00 00 00 00       	mov    $0x0,%edx
  8004202604:	48 f7 75 f8          	divq   -0x8(%rbp)
  8004202608:	48 89 d0             	mov    %rdx,%rax
  800420260b:	48 8b 55 f0          	mov    -0x10(%rbp),%rdx
  800420260f:	48 29 c2             	sub    %rax,%rdx
  8004202612:	48 89 d0             	mov    %rdx,%rax
  8004202615:	48 89 c2             	mov    %rax,%rdx
  8004202618:	48 b8 48 02 4a 04 80 	movabs $0x80044a0248,%rax
  800420261f:	00 00 00 
  8004202622:	48 89 10             	mov    %rdx,(%rax)
	// Allocate a chunk large enough to hold 'n' bytes, then update
	// nextfree.  Make sure nextfree is kept aligned
	// to a multiple of PGSIZE.
	//
	// LAB 2: Your code here.
	if (n == 0) 
  8004202625:	83 7d cc 00          	cmpl   $0x0,-0x34(%rbp)
  8004202629:	75 12                	jne    800420263d <boot_alloc+0x83>
		return nextfree;
  800420262b:	48 b8 48 02 4a 04 80 	movabs $0x80044a0248,%rax
  8004202632:	00 00 00 
  8004202635:	48 8b 00             	mov    (%rax),%rax
  8004202638:	e9 cf 00 00 00       	jmpq   800420270c <boot_alloc+0x152>
	result = nextfree;
  800420263d:	48 b8 48 02 4a 04 80 	movabs $0x80044a0248,%rax
  8004202644:	00 00 00 
  8004202647:	48 8b 00             	mov    (%rax),%rax
  800420264a:	48 89 45 e8          	mov    %rax,-0x18(%rbp)
	nextfree = nextfree + n;
  800420264e:	48 b8 48 02 4a 04 80 	movabs $0x80044a0248,%rax
  8004202655:	00 00 00 
  8004202658:	48 8b 10             	mov    (%rax),%rdx
  800420265b:	8b 45 cc             	mov    -0x34(%rbp),%eax
  800420265e:	48 01 c2             	add    %rax,%rdx
  8004202661:	48 b8 48 02 4a 04 80 	movabs $0x80044a0248,%rax
  8004202668:	00 00 00 
  800420266b:	48 89 10             	mov    %rdx,(%rax)
	nextfree = ROUNDUP(nextfree, PGSIZE);
  800420266e:	48 c7 45 e0 00 10 00 	movq   $0x1000,-0x20(%rbp)
  8004202675:	00 
  8004202676:	48 b8 48 02 4a 04 80 	movabs $0x80044a0248,%rax
  800420267d:	00 00 00 
  8004202680:	48 8b 00             	mov    (%rax),%rax
  8004202683:	48 89 c2             	mov    %rax,%rdx
  8004202686:	48 8b 45 e0          	mov    -0x20(%rbp),%rax
  800420268a:	48 01 d0             	add    %rdx,%rax
  800420268d:	48 83 e8 01          	sub    $0x1,%rax
  8004202691:	48 89 45 d8          	mov    %rax,-0x28(%rbp)
  8004202695:	48 8b 45 d8          	mov    -0x28(%rbp),%rax
  8004202699:	ba 00 00 00 00       	mov    $0x0,%edx
  800420269e:	48 f7 75 e0          	divq   -0x20(%rbp)
  80042026a2:	48 89 d0             	mov    %rdx,%rax
  80042026a5:	48 8b 55 d8          	mov    -0x28(%rbp),%rdx
  80042026a9:	48 29 c2             	sub    %rax,%rdx
  80042026ac:	48 89 d0             	mov    %rdx,%rax
  80042026af:	48 89 c2             	mov    %rax,%rdx
  80042026b2:	48 b8 48 02 4a 04 80 	movabs $0x80044a0248,%rax
  80042026b9:	00 00 00 
  80042026bc:	48 89 10             	mov    %rdx,(%rax)
	//process memory wrap arounds on memory full
	if((uint64_t)nextfree < (uint64_t)end)
  80042026bf:	48 b8 48 02 4a 04 80 	movabs $0x80044a0248,%rax
  80042026c6:	00 00 00 
  80042026c9:	48 8b 00             	mov    (%rax),%rax
  80042026cc:	48 89 c2             	mov    %rax,%rdx
  80042026cf:	48 b8 10 40 52 04 80 	movabs $0x8004524010,%rax
  80042026d6:	00 00 00 
  80042026d9:	48 39 c2             	cmp    %rax,%rdx
  80042026dc:	73 2a                	jae    8004202708 <boot_alloc+0x14e>
	{
		panic("we're out of memory");
  80042026de:	48 ba 99 73 21 04 80 	movabs $0x8004217399,%rdx
  80042026e5:	00 00 00 
  80042026e8:	be e9 00 00 00       	mov    $0xe9,%esi
  80042026ed:	48 bf a6 72 21 04 80 	movabs $0x80042172a6,%rdi
  80042026f4:	00 00 00 
  80042026f7:	b8 00 00 00 00       	mov    $0x0,%eax
  80042026fc:	48 b9 26 05 20 04 80 	movabs $0x8004200526,%rcx
  8004202703:	00 00 00 
  8004202706:	ff d1                	callq  *%rcx
	}
	return result;
  8004202708:	48 8b 45 e8          	mov    -0x18(%rbp),%rax
}
  800420270c:	c9                   	leaveq 
  800420270d:	c3                   	retq   

000000800420270e <x64_vm_init>:
//
// From UTOP to ULIM, the user is allowed to read but not write.
// Above ULIM the user cannot read or write.
void
x64_vm_init(void)
{
  800420270e:	55                   	push   %rbp
  800420270f:	48 89 e5             	mov    %rsp,%rbp
  8004202712:	48 83 ec 60          	sub    $0x60,%rsp
	pml4e_t* pml4e;
	uint32_t cr0;
	uint64_t n;
	int r;
	struct Env *env;
	i386_detect_memory();
  8004202716:	48 b8 17 23 20 04 80 	movabs $0x8004202317,%rax
  800420271d:	00 00 00 
  8004202720:	ff d0                	callq  *%rax
	//panic("i386_vm_init: This function is not finished\n");
	//////////////////////////////////////////////////////////////////////
	// create initial page directory.
	//panic("x64_vm_init: this function is not finished\n");
	pml4e = boot_alloc(PGSIZE);
  8004202722:	bf 00 10 00 00       	mov    $0x1000,%edi
  8004202727:	48 b8 ba 25 20 04 80 	movabs $0x80042025ba,%rax
  800420272e:	00 00 00 
  8004202731:	ff d0                	callq  *%rax
  8004202733:	48 89 45 f8          	mov    %rax,-0x8(%rbp)
	memset(pml4e, 0, PGSIZE);
  8004202737:	48 8b 45 f8          	mov    -0x8(%rbp),%rax
  800420273b:	ba 00 10 00 00       	mov    $0x1000,%edx
  8004202740:	be 00 00 00 00       	mov    $0x0,%esi
  8004202745:	48 89 c7             	mov    %rax,%rdi
  8004202748:	48 b8 a6 f8 20 04 80 	movabs $0x800420f8a6,%rax
  800420274f:	00 00 00 
  8004202752:	ff d0                	callq  *%rax
	boot_pml4e = pml4e;
  8004202754:	48 b8 a8 17 4a 04 80 	movabs $0x80044a17a8,%rax
  800420275b:	00 00 00 
  800420275e:	48 8b 55 f8          	mov    -0x8(%rbp),%rdx
  8004202762:	48 89 10             	mov    %rdx,(%rax)
	boot_cr3 = PADDR(pml4e);
  8004202765:	48 8b 45 f8          	mov    -0x8(%rbp),%rax
  8004202769:	48 89 45 f0          	mov    %rax,-0x10(%rbp)
  800420276d:	48 b8 ff ff ff 03 80 	movabs $0x8003ffffff,%rax
  8004202774:	00 00 00 
  8004202777:	48 39 45 f0          	cmp    %rax,-0x10(%rbp)
  800420277b:	77 32                	ja     80042027af <x64_vm_init+0xa1>
  800420277d:	48 8b 45 f0          	mov    -0x10(%rbp),%rax
  8004202781:	48 89 c1             	mov    %rax,%rcx
  8004202784:	48 ba b0 73 21 04 80 	movabs $0x80042173b0,%rdx
  800420278b:	00 00 00 
  800420278e:	be 07 01 00 00       	mov    $0x107,%esi
  8004202793:	48 bf a6 72 21 04 80 	movabs $0x80042172a6,%rdi
  800420279a:	00 00 00 
  800420279d:	b8 00 00 00 00       	mov    $0x0,%eax
  80042027a2:	49 b8 26 05 20 04 80 	movabs $0x8004200526,%r8
  80042027a9:	00 00 00 
  80042027ac:	41 ff d0             	callq  *%r8
  80042027af:	48 ba 00 00 00 fc 7f 	movabs $0xffffff7ffc000000,%rdx
  80042027b6:	ff ff ff 
  80042027b9:	48 8b 45 f0          	mov    -0x10(%rbp),%rax
  80042027bd:	48 01 c2             	add    %rax,%rdx
  80042027c0:	48 b8 a0 17 4a 04 80 	movabs $0x80044a17a0,%rax
  80042027c7:	00 00 00 
  80042027ca:	48 89 10             	mov    %rdx,(%rax)
	// Allocate an array of npages 'struct PageInfo's and store it in 'pages'.
	// The kernel uses this array to keep track of physical pages: for
	// each physical page, there is a corresponding struct PageInfo in this
	// array.  'npages' is the number of physical pages in memory.
	// Your code goes here:
	pages = (struct PageInfo*)boot_alloc(npages * sizeof(struct PageInfo));
  80042027cd:	48 b8 b0 17 4a 04 80 	movabs $0x80044a17b0,%rax
  80042027d4:	00 00 00 
  80042027d7:	48 8b 00             	mov    (%rax),%rax
  80042027da:	c1 e0 04             	shl    $0x4,%eax
  80042027dd:	89 c7                	mov    %eax,%edi
  80042027df:	48 b8 ba 25 20 04 80 	movabs $0x80042025ba,%rax
  80042027e6:	00 00 00 
  80042027e9:	ff d0                	callq  *%rax
  80042027eb:	48 ba b8 17 4a 04 80 	movabs $0x80044a17b8,%rdx
  80042027f2:	00 00 00 
  80042027f5:	48 89 02             	mov    %rax,(%rdx)

	//////////////////////////////////////////////////////////////////////
	// Make 'envs' point to an array of size 'NENV' of 'struct Env'.
	// LAB 3: Your code here.
	
	envs = (struct Env*)boot_alloc(NENV * sizeof(struct Env));
  80042027f8:	bf 00 80 04 00       	mov    $0x48000,%edi
  80042027fd:	48 b8 ba 25 20 04 80 	movabs $0x80042025ba,%rax
  8004202804:	00 00 00 
  8004202807:	ff d0                	callq  *%rax
  8004202809:	48 ba 50 02 4a 04 80 	movabs $0x80044a0250,%rdx
  8004202810:	00 00 00 
  8004202813:	48 89 02             	mov    %rax,(%rdx)
	//////////////////////////////////////////////////////////////////////
	// Now that we've allocated the initial kernel data structures, we set
	// up the list of free physical pages. Once we've done so, all further
	// memory management will go through the page_* functions. In
	// particular, we can now map memory using boot_map_region or page_insert
	page_init();
  8004202816:	48 b8 82 2b 20 04 80 	movabs $0x8004202b82,%rax
  800420281d:	00 00 00 
  8004202820:	ff d0                	callq  *%rax
	// Permissions:
	//    - the new image at UPAGES -- kernel R, us/er R
	//      (ie. perm = PTE_U | PTE_P)
	//    - pages itself -- kernel RW, user NONE
	// Your code goes here:
    boot_map_region(pml4e, UPAGES, npages * sizeof(struct PageInfo), PADDR(pages), PTE_U|PTE_P);
  8004202822:	48 b8 b8 17 4a 04 80 	movabs $0x80044a17b8,%rax
  8004202829:	00 00 00 
  800420282c:	48 8b 00             	mov    (%rax),%rax
  800420282f:	48 89 45 e8          	mov    %rax,-0x18(%rbp)
  8004202833:	48 b8 ff ff ff 03 80 	movabs $0x8003ffffff,%rax
  800420283a:	00 00 00 
  800420283d:	48 39 45 e8          	cmp    %rax,-0x18(%rbp)
  8004202841:	77 32                	ja     8004202875 <x64_vm_init+0x167>
  8004202843:	48 8b 45 e8          	mov    -0x18(%rbp),%rax
  8004202847:	48 89 c1             	mov    %rax,%rcx
  800420284a:	48 ba b0 73 21 04 80 	movabs $0x80042173b0,%rdx
  8004202851:	00 00 00 
  8004202854:	be 26 01 00 00       	mov    $0x126,%esi
  8004202859:	48 bf a6 72 21 04 80 	movabs $0x80042172a6,%rdi
  8004202860:	00 00 00 
  8004202863:	b8 00 00 00 00       	mov    $0x0,%eax
  8004202868:	49 b8 26 05 20 04 80 	movabs $0x8004200526,%r8
  800420286f:	00 00 00 
  8004202872:	41 ff d0             	callq  *%r8
  8004202875:	48 ba 00 00 00 fc 7f 	movabs $0xffffff7ffc000000,%rdx
  800420287c:	ff ff ff 
  800420287f:	48 8b 45 e8          	mov    -0x18(%rbp),%rax
  8004202883:	48 8d 0c 02          	lea    (%rdx,%rax,1),%rcx
  8004202887:	48 b8 b0 17 4a 04 80 	movabs $0x80044a17b0,%rax
  800420288e:	00 00 00 
  8004202891:	48 8b 00             	mov    (%rax),%rax
  8004202894:	48 c1 e0 04          	shl    $0x4,%rax
  8004202898:	48 89 c2             	mov    %rax,%rdx
  800420289b:	48 8b 45 f8          	mov    -0x8(%rbp),%rax
  800420289f:	41 b8 05 00 00 00    	mov    $0x5,%r8d
  80042028a5:	48 be 00 00 a0 00 80 	movabs $0x8000a00000,%rsi
  80042028ac:	00 00 00 
  80042028af:	48 89 c7             	mov    %rax,%rdi
  80042028b2:	48 b8 02 37 20 04 80 	movabs $0x8004203702,%rax
  80042028b9:	00 00 00 
  80042028bc:	ff d0                	callq  *%rax
	// (ie. perm = PTE_U | PTE_P).
	// Permissions:
	//    - the new image at UENVS  -- kernel R, user R
	//    - envs itself -- kernel RW, user NONE
	// LAB 3: Your code here.
	boot_map_region(pml4e, UENVS, NENV * sizeof(struct Env), PADDR(envs), PTE_U|PTE_P);
  80042028be:	48 b8 50 02 4a 04 80 	movabs $0x80044a0250,%rax
  80042028c5:	00 00 00 
  80042028c8:	48 8b 00             	mov    (%rax),%rax
  80042028cb:	48 89 45 e0          	mov    %rax,-0x20(%rbp)
  80042028cf:	48 b8 ff ff ff 03 80 	movabs $0x8003ffffff,%rax
  80042028d6:	00 00 00 
  80042028d9:	48 39 45 e0          	cmp    %rax,-0x20(%rbp)
  80042028dd:	77 32                	ja     8004202911 <x64_vm_init+0x203>
  80042028df:	48 8b 45 e0          	mov    -0x20(%rbp),%rax
  80042028e3:	48 89 c1             	mov    %rax,%rcx
  80042028e6:	48 ba b0 73 21 04 80 	movabs $0x80042173b0,%rdx
  80042028ed:	00 00 00 
  80042028f0:	be 2f 01 00 00       	mov    $0x12f,%esi
  80042028f5:	48 bf a6 72 21 04 80 	movabs $0x80042172a6,%rdi
  80042028fc:	00 00 00 
  80042028ff:	b8 00 00 00 00       	mov    $0x0,%eax
  8004202904:	49 b8 26 05 20 04 80 	movabs $0x8004200526,%r8
  800420290b:	00 00 00 
  800420290e:	41 ff d0             	callq  *%r8
  8004202911:	48 ba 00 00 00 fc 7f 	movabs $0xffffff7ffc000000,%rdx
  8004202918:	ff ff ff 
  800420291b:	48 8b 45 e0          	mov    -0x20(%rbp),%rax
  800420291f:	48 01 c2             	add    %rax,%rdx
  8004202922:	48 8b 45 f8          	mov    -0x8(%rbp),%rax
  8004202926:	41 b8 05 00 00 00    	mov    $0x5,%r8d
  800420292c:	48 89 d1             	mov    %rdx,%rcx
  800420292f:	ba 00 80 04 00       	mov    $0x48000,%edx
  8004202934:	48 be 00 00 80 00 80 	movabs $0x8000800000,%rsi
  800420293b:	00 00 00 
  800420293e:	48 89 c7             	mov    %rax,%rdi
  8004202941:	48 b8 02 37 20 04 80 	movabs $0x8004203702,%rax
  8004202948:	00 00 00 
  800420294b:	ff d0                	callq  *%rax
	//      the PA range [0, npages*PGSIZE)
	// Permissions: kernel RW, user NONE
	// Your code goes here: 
	// Check that the initial page directory has been set up correctly.
	// Initialize the SMP-related parts of the memory map
	mem_init_mp();
  800420294d:	48 b8 a3 2a 20 04 80 	movabs $0x8004202aa3,%rax
  8004202954:	00 00 00 
  8004202957:	ff d0                	callq  *%rax
	boot_map_region(pml4e, KERNBASE, npages*PGSIZE, 0, PTE_P|PTE_W);
  8004202959:	48 b8 b0 17 4a 04 80 	movabs $0x80044a17b0,%rax
  8004202960:	00 00 00 
  8004202963:	48 8b 00             	mov    (%rax),%rax
  8004202966:	48 c1 e0 0c          	shl    $0xc,%rax
  800420296a:	48 89 c2             	mov    %rax,%rdx
  800420296d:	48 8b 45 f8          	mov    -0x8(%rbp),%rax
  8004202971:	41 b8 03 00 00 00    	mov    $0x3,%r8d
  8004202977:	b9 00 00 00 00       	mov    $0x0,%ecx
  800420297c:	48 be 00 00 00 04 80 	movabs $0x8004000000,%rsi
  8004202983:	00 00 00 
  8004202986:	48 89 c7             	mov    %rax,%rdi
  8004202989:	48 b8 02 37 20 04 80 	movabs $0x8004203702,%rax
  8004202990:	00 00 00 
  8004202993:	ff d0                	callq  *%rax
	//check_boot_pml4e(boot_pml4e);

	//////////////////////////////////////////////////////////////////////
	// Permissions: kernel RW, user NONE

	pdpe_t *pdpe = KADDR(PTE_ADDR(pml4e[1]));
  8004202995:	48 8b 45 f8          	mov    -0x8(%rbp),%rax
  8004202999:	48 83 c0 08          	add    $0x8,%rax
  800420299d:	48 8b 00             	mov    (%rax),%rax
  80042029a0:	48 25 00 f0 ff ff    	and    $0xfffffffffffff000,%rax
  80042029a6:	48 89 45 d8          	mov    %rax,-0x28(%rbp)
  80042029aa:	48 8b 45 d8          	mov    -0x28(%rbp),%rax
  80042029ae:	48 c1 e8 0c          	shr    $0xc,%rax
  80042029b2:	89 45 d4             	mov    %eax,-0x2c(%rbp)
  80042029b5:	8b 55 d4             	mov    -0x2c(%rbp),%edx
  80042029b8:	48 b8 b0 17 4a 04 80 	movabs $0x80044a17b0,%rax
  80042029bf:	00 00 00 
  80042029c2:	48 8b 00             	mov    (%rax),%rax
  80042029c5:	48 39 c2             	cmp    %rax,%rdx
  80042029c8:	72 32                	jb     80042029fc <x64_vm_init+0x2ee>
  80042029ca:	48 8b 45 d8          	mov    -0x28(%rbp),%rax
  80042029ce:	48 89 c1             	mov    %rax,%rcx
  80042029d1:	48 ba 18 72 21 04 80 	movabs $0x8004217218,%rdx
  80042029d8:	00 00 00 
  80042029db:	be 4f 01 00 00       	mov    $0x14f,%esi
  80042029e0:	48 bf a6 72 21 04 80 	movabs $0x80042172a6,%rdi
  80042029e7:	00 00 00 
  80042029ea:	b8 00 00 00 00       	mov    $0x0,%eax
  80042029ef:	49 b8 26 05 20 04 80 	movabs $0x8004200526,%r8
  80042029f6:	00 00 00 
  80042029f9:	41 ff d0             	callq  *%r8
  80042029fc:	48 ba 00 00 00 04 80 	movabs $0x8004000000,%rdx
  8004202a03:	00 00 00 
  8004202a06:	48 8b 45 d8          	mov    -0x28(%rbp),%rax
  8004202a0a:	48 01 d0             	add    %rdx,%rax
  8004202a0d:	48 89 45 c8          	mov    %rax,-0x38(%rbp)
	pde_t *pgdir = KADDR(PTE_ADDR(pdpe[0]));
  8004202a11:	48 8b 45 c8          	mov    -0x38(%rbp),%rax
  8004202a15:	48 8b 00             	mov    (%rax),%rax
  8004202a18:	48 25 00 f0 ff ff    	and    $0xfffffffffffff000,%rax
  8004202a1e:	48 89 45 c0          	mov    %rax,-0x40(%rbp)
  8004202a22:	48 8b 45 c0          	mov    -0x40(%rbp),%rax
  8004202a26:	48 c1 e8 0c          	shr    $0xc,%rax
  8004202a2a:	89 45 bc             	mov    %eax,-0x44(%rbp)
  8004202a2d:	8b 55 bc             	mov    -0x44(%rbp),%edx
  8004202a30:	48 b8 b0 17 4a 04 80 	movabs $0x80044a17b0,%rax
  8004202a37:	00 00 00 
  8004202a3a:	48 8b 00             	mov    (%rax),%rax
  8004202a3d:	48 39 c2             	cmp    %rax,%rdx
  8004202a40:	72 32                	jb     8004202a74 <x64_vm_init+0x366>
  8004202a42:	48 8b 45 c0          	mov    -0x40(%rbp),%rax
  8004202a46:	48 89 c1             	mov    %rax,%rcx
  8004202a49:	48 ba 18 72 21 04 80 	movabs $0x8004217218,%rdx
  8004202a50:	00 00 00 
  8004202a53:	be 50 01 00 00       	mov    $0x150,%esi
  8004202a58:	48 bf a6 72 21 04 80 	movabs $0x80042172a6,%rdi
  8004202a5f:	00 00 00 
  8004202a62:	b8 00 00 00 00       	mov    $0x0,%eax
  8004202a67:	49 b8 26 05 20 04 80 	movabs $0x8004200526,%r8
  8004202a6e:	00 00 00 
  8004202a71:	41 ff d0             	callq  *%r8
  8004202a74:	48 ba 00 00 00 04 80 	movabs $0x8004000000,%rdx
  8004202a7b:	00 00 00 
  8004202a7e:	48 8b 45 c0          	mov    -0x40(%rbp),%rax
  8004202a82:	48 01 d0             	add    %rdx,%rax
  8004202a85:	48 89 45 b0          	mov    %rax,-0x50(%rbp)
	lcr3(boot_cr3);
  8004202a89:	48 b8 a0 17 4a 04 80 	movabs $0x80044a17a0,%rax
  8004202a90:	00 00 00 
  8004202a93:	48 8b 00             	mov    (%rax),%rax
  8004202a96:	48 89 45 a8          	mov    %rax,-0x58(%rbp)
}

static __inline void
lcr3(uint64_t val)
{
	__asm __volatile("movq %0,%%cr3" : : "r" (val));
  8004202a9a:	48 8b 45 a8          	mov    -0x58(%rbp),%rax
  8004202a9e:	0f 22 d8             	mov    %rax,%cr3

    //check_page_free_list(1);
	//check_page_alloc();
	//page_check();
	//check_page_free_list(0);
}
  8004202aa1:	c9                   	leaveq 
  8004202aa2:	c3                   	retq   

0000008004202aa3 <mem_init_mp>:
// Modify mappings in boot_pml4e to support SMP
//   - Map the per-CPU stacks in the region [KSTACKTOP-PTSIZE, KSTACKTOP)
//
static void
mem_init_mp(void)
{
  8004202aa3:	55                   	push   %rbp
  8004202aa4:	48 89 e5             	mov    %rsp,%rbp
  8004202aa7:	48 83 ec 20          	sub    $0x20,%rsp
	//             it will fault rather than overwrite another CPU's stack.
	//             Known as a "guard page".
	//     Permissions: kernel RW, user NONE
	//
	// LAB 4: Your code here:
	int i = 0;
  8004202aab:	c7 45 fc 00 00 00 00 	movl   $0x0,-0x4(%rbp)
	uint64_t la = KSTACKTOP;
  8004202ab2:	48 b8 00 00 00 04 80 	movabs $0x8004000000,%rax
  8004202ab9:	00 00 00 
  8004202abc:	48 89 45 f0          	mov    %rax,-0x10(%rbp)
	for(; i < NCPU; i++)
  8004202ac0:	e9 b1 00 00 00       	jmpq   8004202b76 <mem_init_mp+0xd3>
	{
		//cprintf("\npercpu_kstacks %x", PADDR(percpu_kstacks[i]));
		boot_map_region(boot_pml4e, la - KSTKSIZE, KSTKSIZE, PADDR(percpu_kstacks[i]), PTE_W|PTE_P);
  8004202ac5:	8b 45 fc             	mov    -0x4(%rbp),%eax
  8004202ac8:	48 98                	cltq   
  8004202aca:	48 c1 e0 10          	shl    $0x10,%rax
  8004202ace:	48 89 c2             	mov    %rax,%rdx
  8004202ad1:	48 b8 00 40 4a 04 80 	movabs $0x80044a4000,%rax
  8004202ad8:	00 00 00 
  8004202adb:	48 01 d0             	add    %rdx,%rax
  8004202ade:	48 89 45 e8          	mov    %rax,-0x18(%rbp)
  8004202ae2:	48 b8 ff ff ff 03 80 	movabs $0x8003ffffff,%rax
  8004202ae9:	00 00 00 
  8004202aec:	48 39 45 e8          	cmp    %rax,-0x18(%rbp)
  8004202af0:	77 32                	ja     8004202b24 <mem_init_mp+0x81>
  8004202af2:	48 8b 45 e8          	mov    -0x18(%rbp),%rax
  8004202af6:	48 89 c1             	mov    %rax,%rcx
  8004202af9:	48 ba b0 73 21 04 80 	movabs $0x80042173b0,%rdx
  8004202b00:	00 00 00 
  8004202b03:	be 75 01 00 00       	mov    $0x175,%esi
  8004202b08:	48 bf a6 72 21 04 80 	movabs $0x80042172a6,%rdi
  8004202b0f:	00 00 00 
  8004202b12:	b8 00 00 00 00       	mov    $0x0,%eax
  8004202b17:	49 b8 26 05 20 04 80 	movabs $0x8004200526,%r8
  8004202b1e:	00 00 00 
  8004202b21:	41 ff d0             	callq  *%r8
  8004202b24:	48 ba 00 00 00 fc 7f 	movabs $0xffffff7ffc000000,%rdx
  8004202b2b:	ff ff ff 
  8004202b2e:	48 8b 45 e8          	mov    -0x18(%rbp),%rax
  8004202b32:	48 01 c2             	add    %rax,%rdx
  8004202b35:	48 8b 45 f0          	mov    -0x10(%rbp),%rax
  8004202b39:	48 8d b0 00 00 ff ff 	lea    -0x10000(%rax),%rsi
  8004202b40:	48 b8 a8 17 4a 04 80 	movabs $0x80044a17a8,%rax
  8004202b47:	00 00 00 
  8004202b4a:	48 8b 00             	mov    (%rax),%rax
  8004202b4d:	41 b8 03 00 00 00    	mov    $0x3,%r8d
  8004202b53:	48 89 d1             	mov    %rdx,%rcx
  8004202b56:	ba 00 00 01 00       	mov    $0x10000,%edx
  8004202b5b:	48 89 c7             	mov    %rax,%rdi
  8004202b5e:	48 b8 02 37 20 04 80 	movabs $0x8004203702,%rax
  8004202b65:	00 00 00 
  8004202b68:	ff d0                	callq  *%rax
		la -= (KSTKSIZE + KSTKGAP);
  8004202b6a:	48 81 6d f0 00 80 01 	subq   $0x18000,-0x10(%rbp)
  8004202b71:	00 
	//     Permissions: kernel RW, user NONE
	//
	// LAB 4: Your code here:
	int i = 0;
	uint64_t la = KSTACKTOP;
	for(; i < NCPU; i++)
  8004202b72:	83 45 fc 01          	addl   $0x1,-0x4(%rbp)
  8004202b76:	83 7d fc 07          	cmpl   $0x7,-0x4(%rbp)
  8004202b7a:	0f 8e 45 ff ff ff    	jle    8004202ac5 <mem_init_mp+0x22>
	{
		//cprintf("\npercpu_kstacks %x", PADDR(percpu_kstacks[i]));
		boot_map_region(boot_pml4e, la - KSTKSIZE, KSTKSIZE, PADDR(percpu_kstacks[i]), PTE_W|PTE_P);
		la -= (KSTKSIZE + KSTKGAP);
	}
}
  8004202b80:	c9                   	leaveq 
  8004202b81:	c3                   	retq   

0000008004202b82 <page_init>:
// allocator functions below to allocate and deallocate physical
// memory via the page_free_list.
//
void
page_init(void)
{
  8004202b82:	55                   	push   %rbp
  8004202b83:	48 89 e5             	mov    %rsp,%rbp
  8004202b86:	48 83 ec 70          	sub    $0x70,%rsp
	// NB: Make sure you preserve the direction in which your page_free_list 
	// is constructed
	// NB: Remember to mark the memory used for initial boot page table i.e (va>=BOOT_PAGE_TABLE_START && va < BOOT_PAGE_TABLE_END) as in-use (not free)

	size_t i, holeS, kernE, bootPTS, bootPTE;
	struct PageInfo* last = NULL;
  8004202b8a:	48 c7 45 f0 00 00 00 	movq   $0x0,-0x10(%rbp)
  8004202b91:	00 
	for (i = 0; i < npages; i++) {
  8004202b92:	48 c7 45 f8 00 00 00 	movq   $0x0,-0x8(%rbp)
  8004202b99:	00 
  8004202b9a:	e9 ab 00 00 00       	jmpq   8004202c4a <page_init+0xc8>
		pages[i].pp_ref = 0;
  8004202b9f:	48 b8 b8 17 4a 04 80 	movabs $0x80044a17b8,%rax
  8004202ba6:	00 00 00 
  8004202ba9:	48 8b 00             	mov    (%rax),%rax
  8004202bac:	48 8b 55 f8          	mov    -0x8(%rbp),%rdx
  8004202bb0:	48 c1 e2 04          	shl    $0x4,%rdx
  8004202bb4:	48 01 d0             	add    %rdx,%rax
  8004202bb7:	66 c7 40 08 00 00    	movw   $0x0,0x8(%rax)
		pages[i].pp_link = NULL;
  8004202bbd:	48 b8 b8 17 4a 04 80 	movabs $0x80044a17b8,%rax
  8004202bc4:	00 00 00 
  8004202bc7:	48 8b 00             	mov    (%rax),%rax
  8004202bca:	48 8b 55 f8          	mov    -0x8(%rbp),%rdx
  8004202bce:	48 c1 e2 04          	shl    $0x4,%rdx
  8004202bd2:	48 01 d0             	add    %rdx,%rax
  8004202bd5:	48 c7 00 00 00 00 00 	movq   $0x0,(%rax)
		if(last)
  8004202bdc:	48 83 7d f0 00       	cmpq   $0x0,-0x10(%rbp)
  8004202be1:	74 21                	je     8004202c04 <page_init+0x82>
			last->pp_link = &pages[i];
  8004202be3:	48 b8 b8 17 4a 04 80 	movabs $0x80044a17b8,%rax
  8004202bea:	00 00 00 
  8004202bed:	48 8b 00             	mov    (%rax),%rax
  8004202bf0:	48 8b 55 f8          	mov    -0x8(%rbp),%rdx
  8004202bf4:	48 c1 e2 04          	shl    $0x4,%rdx
  8004202bf8:	48 01 c2             	add    %rax,%rdx
  8004202bfb:	48 8b 45 f0          	mov    -0x10(%rbp),%rax
  8004202bff:	48 89 10             	mov    %rdx,(%rax)
  8004202c02:	eb 25                	jmp    8004202c29 <page_init+0xa7>
		else
			page_free_list = &pages[i];
  8004202c04:	48 b8 b8 17 4a 04 80 	movabs $0x80044a17b8,%rax
  8004202c0b:	00 00 00 
  8004202c0e:	48 8b 00             	mov    (%rax),%rax
  8004202c11:	48 8b 55 f8          	mov    -0x8(%rbp),%rdx
  8004202c15:	48 c1 e2 04          	shl    $0x4,%rdx
  8004202c19:	48 01 c2             	add    %rax,%rdx
  8004202c1c:	48 b8 38 02 4a 04 80 	movabs $0x80044a0238,%rax
  8004202c23:	00 00 00 
  8004202c26:	48 89 10             	mov    %rdx,(%rax)
		last = &pages[i];
  8004202c29:	48 b8 b8 17 4a 04 80 	movabs $0x80044a17b8,%rax
  8004202c30:	00 00 00 
  8004202c33:	48 8b 00             	mov    (%rax),%rax
  8004202c36:	48 8b 55 f8          	mov    -0x8(%rbp),%rdx
  8004202c3a:	48 c1 e2 04          	shl    $0x4,%rdx
  8004202c3e:	48 01 d0             	add    %rdx,%rax
  8004202c41:	48 89 45 f0          	mov    %rax,-0x10(%rbp)
	// is constructed
	// NB: Remember to mark the memory used for initial boot page table i.e (va>=BOOT_PAGE_TABLE_START && va < BOOT_PAGE_TABLE_END) as in-use (not free)

	size_t i, holeS, kernE, bootPTS, bootPTE;
	struct PageInfo* last = NULL;
	for (i = 0; i < npages; i++) {
  8004202c45:	48 83 45 f8 01       	addq   $0x1,-0x8(%rbp)
  8004202c4a:	48 b8 b0 17 4a 04 80 	movabs $0x80044a17b0,%rax
  8004202c51:	00 00 00 
  8004202c54:	48 8b 00             	mov    (%rax),%rax
  8004202c57:	48 39 45 f8          	cmp    %rax,-0x8(%rbp)
  8004202c5b:	0f 82 3e ff ff ff    	jb     8004202b9f <page_init+0x1d>
		else
			page_free_list = &pages[i];
		last = &pages[i];
	}
	//remove page 0 from page list
	page_free_list = page_free_list->pp_link;
  8004202c61:	48 b8 38 02 4a 04 80 	movabs $0x80044a0238,%rax
  8004202c68:	00 00 00 
  8004202c6b:	48 8b 00             	mov    (%rax),%rax
  8004202c6e:	48 8b 10             	mov    (%rax),%rdx
  8004202c71:	48 b8 38 02 4a 04 80 	movabs $0x80044a0238,%rax
  8004202c78:	00 00 00 
  8004202c7b:	48 89 10             	mov    %rdx,(%rax)

	//remove entries of holes till current kernel available memory pointer
	holeS = IOPHYSMEM/PGSIZE;
  8004202c7e:	48 c7 45 e8 a0 00 00 	movq   $0xa0,-0x18(%rbp)
  8004202c85:	00 
	kernE = PADDR(boot_alloc(0))/PGSIZE;
  8004202c86:	bf 00 00 00 00       	mov    $0x0,%edi
  8004202c8b:	48 b8 ba 25 20 04 80 	movabs $0x80042025ba,%rax
  8004202c92:	00 00 00 
  8004202c95:	ff d0                	callq  *%rax
  8004202c97:	48 89 45 e0          	mov    %rax,-0x20(%rbp)
  8004202c9b:	48 b8 ff ff ff 03 80 	movabs $0x8003ffffff,%rax
  8004202ca2:	00 00 00 
  8004202ca5:	48 39 45 e0          	cmp    %rax,-0x20(%rbp)
  8004202ca9:	77 32                	ja     8004202cdd <page_init+0x15b>
  8004202cab:	48 8b 45 e0          	mov    -0x20(%rbp),%rax
  8004202caf:	48 89 c1             	mov    %rax,%rcx
  8004202cb2:	48 ba b0 73 21 04 80 	movabs $0x80042173b0,%rdx
  8004202cb9:	00 00 00 
  8004202cbc:	be b2 01 00 00       	mov    $0x1b2,%esi
  8004202cc1:	48 bf a6 72 21 04 80 	movabs $0x80042172a6,%rdi
  8004202cc8:	00 00 00 
  8004202ccb:	b8 00 00 00 00       	mov    $0x0,%eax
  8004202cd0:	49 b8 26 05 20 04 80 	movabs $0x8004200526,%r8
  8004202cd7:	00 00 00 
  8004202cda:	41 ff d0             	callq  *%r8
  8004202cdd:	48 ba 00 00 00 fc 7f 	movabs $0xffffff7ffc000000,%rdx
  8004202ce4:	ff ff ff 
  8004202ce7:	48 8b 45 e0          	mov    -0x20(%rbp),%rax
  8004202ceb:	48 01 d0             	add    %rdx,%rax
  8004202cee:	48 c1 e8 0c          	shr    $0xc,%rax
  8004202cf2:	48 89 45 d8          	mov    %rax,-0x28(%rbp)
	pages[holeS - 1].pp_link = &pages[kernE];
  8004202cf6:	48 b8 b8 17 4a 04 80 	movabs $0x80044a17b8,%rax
  8004202cfd:	00 00 00 
  8004202d00:	48 8b 00             	mov    (%rax),%rax
  8004202d03:	48 8b 55 e8          	mov    -0x18(%rbp),%rdx
  8004202d07:	48 c1 e2 04          	shl    $0x4,%rdx
  8004202d0b:	48 83 ea 10          	sub    $0x10,%rdx
  8004202d0f:	48 01 c2             	add    %rax,%rdx
  8004202d12:	48 b8 b8 17 4a 04 80 	movabs $0x80044a17b8,%rax
  8004202d19:	00 00 00 
  8004202d1c:	48 8b 00             	mov    (%rax),%rax
  8004202d1f:	48 8b 4d d8          	mov    -0x28(%rbp),%rcx
  8004202d23:	48 c1 e1 04          	shl    $0x4,%rcx
  8004202d27:	48 01 c8             	add    %rcx,%rax
  8004202d2a:	48 89 02             	mov    %rax,(%rdx)

	bootPTS = PADDR(BOOT_PAGE_TABLE_START)/PGSIZE;	
  8004202d2d:	48 b8 00 20 10 00 00 	movabs $0x102000,%rax
  8004202d34:	00 00 00 
  8004202d37:	48 89 45 d0          	mov    %rax,-0x30(%rbp)
  8004202d3b:	48 8b 45 d0          	mov    -0x30(%rbp),%rax
  8004202d3f:	48 c1 e8 0c          	shr    $0xc,%rax
  8004202d43:	89 45 cc             	mov    %eax,-0x34(%rbp)
  8004202d46:	8b 55 cc             	mov    -0x34(%rbp),%edx
  8004202d49:	48 b8 b0 17 4a 04 80 	movabs $0x80044a17b0,%rax
  8004202d50:	00 00 00 
  8004202d53:	48 8b 00             	mov    (%rax),%rax
  8004202d56:	48 39 c2             	cmp    %rax,%rdx
  8004202d59:	72 32                	jb     8004202d8d <page_init+0x20b>
  8004202d5b:	48 8b 45 d0          	mov    -0x30(%rbp),%rax
  8004202d5f:	48 89 c1             	mov    %rax,%rcx
  8004202d62:	48 ba 18 72 21 04 80 	movabs $0x8004217218,%rdx
  8004202d69:	00 00 00 
  8004202d6c:	be b5 01 00 00       	mov    $0x1b5,%esi
  8004202d71:	48 bf a6 72 21 04 80 	movabs $0x80042172a6,%rdi
  8004202d78:	00 00 00 
  8004202d7b:	b8 00 00 00 00       	mov    $0x0,%eax
  8004202d80:	49 b8 26 05 20 04 80 	movabs $0x8004200526,%r8
  8004202d87:	00 00 00 
  8004202d8a:	41 ff d0             	callq  *%r8
  8004202d8d:	48 ba 00 00 00 04 80 	movabs $0x8004000000,%rdx
  8004202d94:	00 00 00 
  8004202d97:	48 8b 45 d0          	mov    -0x30(%rbp),%rax
  8004202d9b:	48 01 d0             	add    %rdx,%rax
  8004202d9e:	48 89 45 c0          	mov    %rax,-0x40(%rbp)
  8004202da2:	48 b8 ff ff ff 03 80 	movabs $0x8003ffffff,%rax
  8004202da9:	00 00 00 
  8004202dac:	48 39 45 c0          	cmp    %rax,-0x40(%rbp)
  8004202db0:	77 32                	ja     8004202de4 <page_init+0x262>
  8004202db2:	48 8b 45 c0          	mov    -0x40(%rbp),%rax
  8004202db6:	48 89 c1             	mov    %rax,%rcx
  8004202db9:	48 ba b0 73 21 04 80 	movabs $0x80042173b0,%rdx
  8004202dc0:	00 00 00 
  8004202dc3:	be b5 01 00 00       	mov    $0x1b5,%esi
  8004202dc8:	48 bf a6 72 21 04 80 	movabs $0x80042172a6,%rdi
  8004202dcf:	00 00 00 
  8004202dd2:	b8 00 00 00 00       	mov    $0x0,%eax
  8004202dd7:	49 b8 26 05 20 04 80 	movabs $0x8004200526,%r8
  8004202dde:	00 00 00 
  8004202de1:	41 ff d0             	callq  *%r8
  8004202de4:	48 ba 00 00 00 fc 7f 	movabs $0xffffff7ffc000000,%rdx
  8004202deb:	ff ff ff 
  8004202dee:	48 8b 45 c0          	mov    -0x40(%rbp),%rax
  8004202df2:	48 01 d0             	add    %rdx,%rax
  8004202df5:	48 c1 e8 0c          	shr    $0xc,%rax
  8004202df9:	48 89 45 b8          	mov    %rax,-0x48(%rbp)
	bootPTE = PADDR(BOOT_PAGE_TABLE_END - 1)/PGSIZE;
  8004202dfd:	48 b8 00 20 10 00 00 	movabs $0x102000,%rax
  8004202e04:	00 00 00 
  8004202e07:	48 05 00 50 00 00    	add    $0x5000,%rax
  8004202e0d:	48 89 45 b0          	mov    %rax,-0x50(%rbp)
  8004202e11:	48 8b 45 b0          	mov    -0x50(%rbp),%rax
  8004202e15:	48 c1 e8 0c          	shr    $0xc,%rax
  8004202e19:	89 45 ac             	mov    %eax,-0x54(%rbp)
  8004202e1c:	8b 55 ac             	mov    -0x54(%rbp),%edx
  8004202e1f:	48 b8 b0 17 4a 04 80 	movabs $0x80044a17b0,%rax
  8004202e26:	00 00 00 
  8004202e29:	48 8b 00             	mov    (%rax),%rax
  8004202e2c:	48 39 c2             	cmp    %rax,%rdx
  8004202e2f:	72 32                	jb     8004202e63 <page_init+0x2e1>
  8004202e31:	48 8b 45 b0          	mov    -0x50(%rbp),%rax
  8004202e35:	48 89 c1             	mov    %rax,%rcx
  8004202e38:	48 ba 18 72 21 04 80 	movabs $0x8004217218,%rdx
  8004202e3f:	00 00 00 
  8004202e42:	be b6 01 00 00       	mov    $0x1b6,%esi
  8004202e47:	48 bf a6 72 21 04 80 	movabs $0x80042172a6,%rdi
  8004202e4e:	00 00 00 
  8004202e51:	b8 00 00 00 00       	mov    $0x0,%eax
  8004202e56:	49 b8 26 05 20 04 80 	movabs $0x8004200526,%r8
  8004202e5d:	00 00 00 
  8004202e60:	41 ff d0             	callq  *%r8
  8004202e63:	48 ba 00 00 00 04 80 	movabs $0x8004000000,%rdx
  8004202e6a:	00 00 00 
  8004202e6d:	48 8b 45 b0          	mov    -0x50(%rbp),%rax
  8004202e71:	48 01 d0             	add    %rdx,%rax
  8004202e74:	48 83 e8 01          	sub    $0x1,%rax
  8004202e78:	48 89 45 a0          	mov    %rax,-0x60(%rbp)
  8004202e7c:	48 b8 ff ff ff 03 80 	movabs $0x8003ffffff,%rax
  8004202e83:	00 00 00 
  8004202e86:	48 39 45 a0          	cmp    %rax,-0x60(%rbp)
  8004202e8a:	77 32                	ja     8004202ebe <page_init+0x33c>
  8004202e8c:	48 8b 45 a0          	mov    -0x60(%rbp),%rax
  8004202e90:	48 89 c1             	mov    %rax,%rcx
  8004202e93:	48 ba b0 73 21 04 80 	movabs $0x80042173b0,%rdx
  8004202e9a:	00 00 00 
  8004202e9d:	be b6 01 00 00       	mov    $0x1b6,%esi
  8004202ea2:	48 bf a6 72 21 04 80 	movabs $0x80042172a6,%rdi
  8004202ea9:	00 00 00 
  8004202eac:	b8 00 00 00 00       	mov    $0x0,%eax
  8004202eb1:	49 b8 26 05 20 04 80 	movabs $0x8004200526,%r8
  8004202eb8:	00 00 00 
  8004202ebb:	41 ff d0             	callq  *%r8
  8004202ebe:	48 ba 00 00 00 fc 7f 	movabs $0xffffff7ffc000000,%rdx
  8004202ec5:	ff ff ff 
  8004202ec8:	48 8b 45 a0          	mov    -0x60(%rbp),%rax
  8004202ecc:	48 01 d0             	add    %rdx,%rax
  8004202ecf:	48 c1 e8 0c          	shr    $0xc,%rax
  8004202ed3:	48 89 45 98          	mov    %rax,-0x68(%rbp)
	pages[bootPTS - 1].pp_link = &pages[bootPTE + 1];
  8004202ed7:	48 b8 b8 17 4a 04 80 	movabs $0x80044a17b8,%rax
  8004202ede:	00 00 00 
  8004202ee1:	48 8b 00             	mov    (%rax),%rax
  8004202ee4:	48 8b 55 b8          	mov    -0x48(%rbp),%rdx
  8004202ee8:	48 c1 e2 04          	shl    $0x4,%rdx
  8004202eec:	48 83 ea 10          	sub    $0x10,%rdx
  8004202ef0:	48 01 c2             	add    %rax,%rdx
  8004202ef3:	48 b8 b8 17 4a 04 80 	movabs $0x80044a17b8,%rax
  8004202efa:	00 00 00 
  8004202efd:	48 8b 00             	mov    (%rax),%rax
  8004202f00:	48 8b 4d 98          	mov    -0x68(%rbp),%rcx
  8004202f04:	48 83 c1 01          	add    $0x1,%rcx
  8004202f08:	48 c1 e1 04          	shl    $0x4,%rcx
  8004202f0c:	48 01 c8             	add    %rcx,%rax
  8004202f0f:	48 89 02             	mov    %rax,(%rdx)

	//marking page at MPENTRY_PADDR as being used 
	pages[MPENTRY_PADDR / PGSIZE - 1].pp_link = &pages[MPENTRY_PADDR / PGSIZE + 1];
  8004202f12:	48 b8 b8 17 4a 04 80 	movabs $0x80044a17b8,%rax
  8004202f19:	00 00 00 
  8004202f1c:	48 8b 00             	mov    (%rax),%rax
  8004202f1f:	48 8d 50 60          	lea    0x60(%rax),%rdx
  8004202f23:	48 b8 b8 17 4a 04 80 	movabs $0x80044a17b8,%rax
  8004202f2a:	00 00 00 
  8004202f2d:	48 8b 00             	mov    (%rax),%rax
  8004202f30:	48 83 e8 80          	sub    $0xffffffffffffff80,%rax
  8004202f34:	48 89 02             	mov    %rax,(%rdx)
}
  8004202f37:	c9                   	leaveq 
  8004202f38:	c3                   	retq   

0000008004202f39 <page_alloc>:
// Returns NULL if out of free memory.
//
// Hint: use page2kva and memset
struct PageInfo *
page_alloc(int alloc_flags)
{
  8004202f39:	55                   	push   %rbp
  8004202f3a:	48 89 e5             	mov    %rsp,%rbp
  8004202f3d:	48 83 ec 20          	sub    $0x20,%rsp
  8004202f41:	89 7d ec             	mov    %edi,-0x14(%rbp)
	// Fill this function in
	struct PageInfo * page = NULL;
  8004202f44:	48 c7 45 f8 00 00 00 	movq   $0x0,-0x8(%rbp)
  8004202f4b:	00 
	if(page_free_list)
  8004202f4c:	48 b8 38 02 4a 04 80 	movabs $0x80044a0238,%rax
  8004202f53:	00 00 00 
  8004202f56:	48 8b 00             	mov    (%rax),%rax
  8004202f59:	48 85 c0             	test   %rax,%rax
  8004202f5c:	74 6f                	je     8004202fcd <page_alloc+0x94>
	{
		page = page_free_list;
  8004202f5e:	48 b8 38 02 4a 04 80 	movabs $0x80044a0238,%rax
  8004202f65:	00 00 00 
  8004202f68:	48 8b 00             	mov    (%rax),%rax
  8004202f6b:	48 89 45 f8          	mov    %rax,-0x8(%rbp)
		page_free_list = page_free_list->pp_link;
  8004202f6f:	48 b8 38 02 4a 04 80 	movabs $0x80044a0238,%rax
  8004202f76:	00 00 00 
  8004202f79:	48 8b 00             	mov    (%rax),%rax
  8004202f7c:	48 8b 10             	mov    (%rax),%rdx
  8004202f7f:	48 b8 38 02 4a 04 80 	movabs $0x80044a0238,%rax
  8004202f86:	00 00 00 
  8004202f89:	48 89 10             	mov    %rdx,(%rax)
		page->pp_link = NULL;
  8004202f8c:	48 8b 45 f8          	mov    -0x8(%rbp),%rax
  8004202f90:	48 c7 00 00 00 00 00 	movq   $0x0,(%rax)
//		cprintf("Umesh: physical addresses =[%x]\n",page);
		if(alloc_flags & ALLOC_ZERO)
  8004202f97:	8b 45 ec             	mov    -0x14(%rbp),%eax
  8004202f9a:	83 e0 01             	and    $0x1,%eax
  8004202f9d:	85 c0                	test   %eax,%eax
  8004202f9f:	74 2c                	je     8004202fcd <page_alloc+0x94>
		{
			memset(page2kva(page), '\0', PGSIZE);
  8004202fa1:	48 8b 45 f8          	mov    -0x8(%rbp),%rax
  8004202fa5:	48 89 c7             	mov    %rax,%rdi
  8004202fa8:	48 b8 91 1c 20 04 80 	movabs $0x8004201c91,%rax
  8004202faf:	00 00 00 
  8004202fb2:	ff d0                	callq  *%rax
  8004202fb4:	ba 00 10 00 00       	mov    $0x1000,%edx
  8004202fb9:	be 00 00 00 00       	mov    $0x0,%esi
  8004202fbe:	48 89 c7             	mov    %rax,%rdi
  8004202fc1:	48 b8 a6 f8 20 04 80 	movabs $0x800420f8a6,%rax
  8004202fc8:	00 00 00 
  8004202fcb:	ff d0                	callq  *%rax
		}
	}
	else{
		//cprintf("page alloc failed\n");
	}
	return page;
  8004202fcd:	48 8b 45 f8          	mov    -0x8(%rbp),%rax
}
  8004202fd1:	c9                   	leaveq 
  8004202fd2:	c3                   	retq   

0000008004202fd3 <page_initpp>:
// The result has null links and 0 refcount.
// Note that the corresponding physical page is NOT initialized!
//
static void
page_initpp(struct PageInfo *pp)
{
  8004202fd3:	55                   	push   %rbp
  8004202fd4:	48 89 e5             	mov    %rsp,%rbp
  8004202fd7:	48 83 ec 10          	sub    $0x10,%rsp
  8004202fdb:	48 89 7d f8          	mov    %rdi,-0x8(%rbp)
	memset(pp, 0, sizeof(*pp));
  8004202fdf:	48 8b 45 f8          	mov    -0x8(%rbp),%rax
  8004202fe3:	ba 10 00 00 00       	mov    $0x10,%edx
  8004202fe8:	be 00 00 00 00       	mov    $0x0,%esi
  8004202fed:	48 89 c7             	mov    %rax,%rdi
  8004202ff0:	48 b8 a6 f8 20 04 80 	movabs $0x800420f8a6,%rax
  8004202ff7:	00 00 00 
  8004202ffa:	ff d0                	callq  *%rax
}
  8004202ffc:	c9                   	leaveq 
  8004202ffd:	c3                   	retq   

0000008004202ffe <insertAtBegining>:

void insertAtBegining(struct PageInfo ** list, struct PageInfo * node)
{
  8004202ffe:	55                   	push   %rbp
  8004202fff:	48 89 e5             	mov    %rsp,%rbp
  8004203002:	48 83 ec 10          	sub    $0x10,%rsp
  8004203006:	48 89 7d f8          	mov    %rdi,-0x8(%rbp)
  800420300a:	48 89 75 f0          	mov    %rsi,-0x10(%rbp)
	if(*list == NULL)
  800420300e:	48 8b 45 f8          	mov    -0x8(%rbp),%rax
  8004203012:	48 8b 00             	mov    (%rax),%rax
  8004203015:	48 85 c0             	test   %rax,%rax
  8004203018:	75 0d                	jne    8004203027 <insertAtBegining+0x29>
	{
		*list = node;
  800420301a:	48 8b 45 f8          	mov    -0x8(%rbp),%rax
  800420301e:	48 8b 55 f0          	mov    -0x10(%rbp),%rdx
  8004203022:	48 89 10             	mov    %rdx,(%rax)
  8004203025:	eb 2c                	jmp    8004203053 <insertAtBegining+0x55>
	}
	else if(*list != NULL && node != NULL)
  8004203027:	48 8b 45 f8          	mov    -0x8(%rbp),%rax
  800420302b:	48 8b 00             	mov    (%rax),%rax
  800420302e:	48 85 c0             	test   %rax,%rax
  8004203031:	74 20                	je     8004203053 <insertAtBegining+0x55>
  8004203033:	48 83 7d f0 00       	cmpq   $0x0,-0x10(%rbp)
  8004203038:	74 19                	je     8004203053 <insertAtBegining+0x55>
	{
		node->pp_link = *list;
  800420303a:	48 8b 45 f8          	mov    -0x8(%rbp),%rax
  800420303e:	48 8b 10             	mov    (%rax),%rdx
  8004203041:	48 8b 45 f0          	mov    -0x10(%rbp),%rax
  8004203045:	48 89 10             	mov    %rdx,(%rax)
		*list = node;
  8004203048:	48 8b 45 f8          	mov    -0x8(%rbp),%rax
  800420304c:	48 8b 55 f0          	mov    -0x10(%rbp),%rdx
  8004203050:	48 89 10             	mov    %rdx,(%rax)
	}
}
  8004203053:	c9                   	leaveq 
  8004203054:	c3                   	retq   

0000008004203055 <page_free>:
// Return a page to the free list.
// (This function should only be called when pp->pp_ref reaches 0.)
//
void
page_free(struct PageInfo *pp)
{
  8004203055:	55                   	push   %rbp
  8004203056:	48 89 e5             	mov    %rsp,%rbp
  8004203059:	48 83 ec 10          	sub    $0x10,%rsp
  800420305d:	48 89 7d f8          	mov    %rdi,-0x8(%rbp)
	// Fill this function in
	// Hint: You may want to panic if pp->pp_ref is nonzero or
	// pp->pp_link is not NULL.
	if(pp->pp_ref != 0)
  8004203061:	48 8b 45 f8          	mov    -0x8(%rbp),%rax
  8004203065:	0f b7 40 08          	movzwl 0x8(%rax),%eax
  8004203069:	66 85 c0             	test   %ax,%ax
  800420306c:	74 2a                	je     8004203098 <page_free+0x43>
	{	
		panic("pp->pp_ref is nonzero");
  800420306e:	48 ba d4 73 21 04 80 	movabs $0x80042173d4,%rdx
  8004203075:	00 00 00 
  8004203078:	be 03 02 00 00       	mov    $0x203,%esi
  800420307d:	48 bf a6 72 21 04 80 	movabs $0x80042172a6,%rdi
  8004203084:	00 00 00 
  8004203087:	b8 00 00 00 00       	mov    $0x0,%eax
  800420308c:	48 b9 26 05 20 04 80 	movabs $0x8004200526,%rcx
  8004203093:	00 00 00 
  8004203096:	ff d1                	callq  *%rcx
	}
	else if(pp->pp_link)
  8004203098:	48 8b 45 f8          	mov    -0x8(%rbp),%rax
  800420309c:	48 8b 00             	mov    (%rax),%rax
  800420309f:	48 85 c0             	test   %rax,%rax
  80042030a2:	74 2a                	je     80042030ce <page_free+0x79>
	{
		panic("pp->pp_link is not NULL");
  80042030a4:	48 ba ea 73 21 04 80 	movabs $0x80042173ea,%rdx
  80042030ab:	00 00 00 
  80042030ae:	be 07 02 00 00       	mov    $0x207,%esi
  80042030b3:	48 bf a6 72 21 04 80 	movabs $0x80042172a6,%rdi
  80042030ba:	00 00 00 
  80042030bd:	b8 00 00 00 00       	mov    $0x0,%eax
  80042030c2:	48 b9 26 05 20 04 80 	movabs $0x8004200526,%rcx
  80042030c9:	00 00 00 
  80042030cc:	ff d1                	callq  *%rcx
	}
	else
	{
		//insert node to be freed at the begining of free node list
		insertAtBegining(&page_free_list, pp);
  80042030ce:	48 8b 45 f8          	mov    -0x8(%rbp),%rax
  80042030d2:	48 89 c6             	mov    %rax,%rsi
  80042030d5:	48 bf 38 02 4a 04 80 	movabs $0x80044a0238,%rdi
  80042030dc:	00 00 00 
  80042030df:	48 b8 fe 2f 20 04 80 	movabs $0x8004202ffe,%rax
  80042030e6:	00 00 00 
  80042030e9:	ff d0                	callq  *%rax
	}
}
  80042030eb:	c9                   	leaveq 
  80042030ec:	c3                   	retq   

00000080042030ed <page_decref>:
// Decrement the reference count on a page,
// freeing it if there are no more refs.
//
void
page_decref(struct PageInfo* pp)
{
  80042030ed:	55                   	push   %rbp
  80042030ee:	48 89 e5             	mov    %rsp,%rbp
  80042030f1:	48 83 ec 10          	sub    $0x10,%rsp
  80042030f5:	48 89 7d f8          	mov    %rdi,-0x8(%rbp)
	if (--pp->pp_ref == 0)
  80042030f9:	48 8b 45 f8          	mov    -0x8(%rbp),%rax
  80042030fd:	0f b7 40 08          	movzwl 0x8(%rax),%eax
  8004203101:	8d 50 ff             	lea    -0x1(%rax),%edx
  8004203104:	48 8b 45 f8          	mov    -0x8(%rbp),%rax
  8004203108:	66 89 50 08          	mov    %dx,0x8(%rax)
  800420310c:	48 8b 45 f8          	mov    -0x8(%rbp),%rax
  8004203110:	0f b7 40 08          	movzwl 0x8(%rax),%eax
  8004203114:	66 85 c0             	test   %ax,%ax
  8004203117:	75 13                	jne    800420312c <page_decref+0x3f>
		page_free(pp);
  8004203119:	48 8b 45 f8          	mov    -0x8(%rbp),%rax
  800420311d:	48 89 c7             	mov    %rax,%rdi
  8004203120:	48 b8 55 30 20 04 80 	movabs $0x8004203055,%rax
  8004203127:	00 00 00 
  800420312a:	ff d0                	callq  *%rax
}
  800420312c:	c9                   	leaveq 
  800420312d:	c3                   	retq   

000000800420312e <pml4e_walk>:
// table, page directory,page directory pointer and pml4 entries.
//

pte_t *
pml4e_walk(pml4e_t *pml4e, const void *va, int create)
{
  800420312e:	55                   	push   %rbp
  800420312f:	48 89 e5             	mov    %rsp,%rbp
  8004203132:	53                   	push   %rbx
  8004203133:	48 83 ec 58          	sub    $0x58,%rsp
  8004203137:	48 89 7d b8          	mov    %rdi,-0x48(%rbp)
  800420313b:	48 89 75 b0          	mov    %rsi,-0x50(%rbp)
  800420313f:	89 55 ac             	mov    %edx,-0x54(%rbp)
	//Need to return
	pte_t * pml4eIndexPtr = NULL;
  8004203142:	48 c7 45 e0 00 00 00 	movq   $0x0,-0x20(%rbp)
  8004203149:	00 
	int pml4eIndex;
	int pdpeIndex;
	uint64_t temp;
	struct PageInfo * page = NULL;
  800420314a:	48 c7 45 e8 00 00 00 	movq   $0x0,-0x18(%rbp)
  8004203151:	00 
	if(pml4e == NULL)
